(lp0
L123447L
aL129367L
aL112932L
aL129366L
aL115718L
aL115993L
aL164153L
aL106066L
aL194583L
aL145299L
aL115727L
aL436435L
aL141179L
aL116987L
aL114219L
aL230158L
aL114822L
aL118494L
aL123893L
aL148828L
aL106067L
aL117069L
aL195439L
aL125381L
aL248276L
aL164149L
aL164133L
aL123355L
aL207080L
aL198893L
aL119457L
aL105310L
aL122674L
aL129368L
aL164126L
aL120243L
aL195370L
aL122274L
aL114653L
aL164145L
aL202424L
aL164155L
aL134326L
aL140765L
aL115065L
aL116555L
aL122491L
aL114613L
aL264782L
aL107230L
aL115728L
aL195926L
aL108742L
aL128436L
aL127103L
aL196360L
aL140759L
aL257208L
aL164131L
aL190477L
aL235570L
aL181867L
aL293735L
aL198503L
aL192358L
aL109830L
aL448821L
aL234414L
aL115134L
aL352312L
aL123414L
aL124092L
aL129842L
aL469712L
aL170879L
aL164130L
aL470006L
aL129783L
aL455144L
aL458565L
aL293712L
aL453089L
aL449217L
aL452937L
aL458135L
aL456282L
aL181726L
aL479136L
aL479704L
aL479979L
aL203775L
aL480879L
aL114335L
aL487556L
aL487185L
aL464433L
aL470923L
a.