(lp0
L123447L
aL129367L
aL120750L
aL112932L
aL129366L
aL115718L
aL124524L
aL115993L
aL164153L
aL106066L
aL194583L
aL145299L
aL115727L
aL436435L
aL141179L
aL116987L
aL129640L
aL114219L
aL230158L
aL114822L
aL118494L
aL123893L
aL148828L
aL106067L
aL117069L
aL195439L
aL208041L
aL125381L
aL110021L
aL248276L
aL113569L
aL164149L
aL164133L
aL123355L
aL207080L
aL198893L
aL119457L
aL105310L
aL122674L
aL129368L
aL164126L
aL115783L
aL120243L
aL107232L
aL195370L
aL208881L
aL122274L
aL114653L
aL206461L
aL164145L
aL202424L
aL111236L
aL164155L
aL134326L
aL140765L
aL115065L
aL390220L
aL116555L
aL210688L
aL122491L
aL114613L
aL264782L
aL113571L
aL197460L
aL106236L
aL107230L
aL115728L
aL185308L
aL208040L
aL124533L
aL441975L
aL195926L
aL108742L
aL128436L
aL127347L
aL127103L
aL244729L
aL205090L
aL196360L
aL140759L
aL257208L
aL128747L
aL216587L
aL121924L
aL164131L
aL115131L
aL190477L
aL235570L
aL181867L
aL123242L
aL293735L
aL198503L
aL192358L
aL109830L
aL121756L
aL448821L
aL193273L
aL234414L
aL115134L
aL128740L
aL218696L
aL352312L
aL164139L
aL203190L
aL127472L
aL123414L
aL215276L
aL123452L
aL124092L
aL129842L
aL469712L
aL140760L
aL269910L
aL226799L
aL170879L
aL164130L
aL470006L
aL452869L
aL129783L
aL455144L
aL458565L
aL458507L
aL293712L
aL453089L
aL449217L
aL318072L
aL452937L
aL458135L
aL456282L
aL120016L
aL181726L
aL311779L
aL440917L
aL479136L
aL325281L
aL302516L
aL479704L
aL479979L
aL447745L
aL203775L
aL480879L
aL480880L
aL480901L
aL481305L
aL114335L
aL487686L
aL487556L
aL487185L
aL481977L
aL464433L
aL470923L
a.