(lp0
L190477L
aL194583L
aL352312L
aL133199L
aL127103L
aL487556L
aL114822L
aL108742L
aL207080L
aL198893L
aL116987L
aL487686L
aL164126L
aL164130L
aL164131L
aL112932L
aL164133L
aL235570L
aL164145L
aL164149L
aL164153L
aL164155L
aL452937L
aL129366L
aL129367L
aL129368L
aL115065L
aL115134L
aL125381L
aL248276L
aL479704L
aL123355L
aL453089L
aL455144L
aL123414L
aL123447L
aL128436L
aL264782L
aL119457L
aL469712L
aL107230L
aL479979L
aL129783L
aL195370L
aL230158L
aL140765L
aL129842L
aL293712L
aL105310L
aL195439L
aL170879L
aL234414L
aL123893L
aL470006L
aL203775L
aL115718L
aL115727L
aL115728L
aL134326L
aL257208L
aL124092L
aL109830L
aL115993L
aL195926L
aL148828L
aL458135L
aL122274L
aL120243L
aL140759L
aL181726L
aL106066L
aL114219L
aL464433L
aL106067L
aL456282L
aL181867L
aL480879L
aL122491L
aL114335L
aL202424L
aL118494L
aL210688L
aL487185L
aL122674L
aL448821L
aL458565L
aL116555L
aL192358L
aL141179L
aL470923L
aL145299L
aL479136L
aL114613L
aL117069L
aL114653L
a.