(lp0
(F37.8519222
F-122.2697487
tp1
a(F37.8054606
F-122.2778865
tp2
a(F37.7739647
F-122.2214996
tp3
a(F37.7761419
F-122.2261767
tp4
a(F37.7762907
F-122.2262047
tp5
a(F37.7352049
F-122.4248397
tp6
a(F37.8028854
F-122.2834197
tp7
a(F37.8065923
F-122.4044742
tp8
a(F37.7253668
F-122.441619
tp9
a(F37.7662776
F-122.3918572
tp10
a(F37.7477142
F-122.4269238
tp11
a(F37.7469058
F-122.4268444
tp12
a(F37.7352123
F-122.4249202
tp13
a(F37.7766124
F-122.223657
tp14
a(F37.7764893
F-122.2237527
tp15
a(F37.734412
F-122.442034
tp16
a(F37.7260428
F-122.4480096
tp17
a(F37.7260048
F-122.447527
tp18
a(F37.7018757
F-122.4706398
tp19
a(F37.7574243
F-122.4257807
tp20
a(F37.7548359
F-122.4277004
tp21
a(F37.7243946
F-122.4534711
tp22
a(F37.7253038
F-122.453278
tp23
a(F37.7242133
F-122.4538279
tp24
a(F37.730516
F-122.4366057
tp25
a(F37.7688258
F-122.3967664
tp26
a(F37.7682666
F-122.3962361
tp27
a(F37.8518474
F-122.2699584
tp28
a(F37.8542418
F-122.2694402
tp29
a(F37.8518315
F-122.2700013
tp30
a(F37.8518826
F-122.2702049
tp31
a(F37.8541474
F-122.2690639
tp32
a(F37.8436969
F-122.2528809
tp33
a(F37.8449402
F-122.2515345
tp34
a(F37.8444569
F-122.2506317
tp35
a(F37.8037338
F-122.4098676
tp36
a(F37.8113977
F-122.2653273
tp37
a(F37.7589669
F-122.4136099
tp38
a(F37.8059282
F-122.2627304
tp39
a(F37.8051286
F-122.2869585
tp40
a(F37.8047938
F-122.2868029
tp41
a(F37.8062791
F-122.2856749
tp42
a(F37.7189148
F-122.4436993
tp43
a(F37.7204731
F-122.4430607
tp44
a(F37.7259777
F-122.4415796
tp45
a(F37.7252333
F-122.4515986
tp46
a(F37.7940196
F-122.2653001
tp47
a(F37.8097377
F-122.2872449
tp48
a(F37.8100852
F-122.2883017
tp49
a(F37.8103077
F-122.2892619
tp50
a(F37.7682483
F-122.4295741
tp51
a(F37.708219
F-122.467004
tp52
a(F37.7684628
F-122.4295934
tp53
a(F37.800744
F-122.2892812
tp54
a(F37.7377786
F-122.4295838
tp55
a(F37.7687652
F-122.4277909
tp56
a(F37.7248604
F-122.4498716
tp57
a(F37.8116306
F-122.2727431
tp58
a(F37.7518792
F-122.4245285
tp59
a(F37.7991808
F-122.262343
tp60
a(F37.8051521
F-122.2623385
tp61
a(F37.768729
F-122.4281758
tp62
a(F37.8020354
F-122.2858097
tp63
a(F37.8105369
F-122.2733497
tp64
a(F37.7978923
F-122.2722822
tp65
a(F37.809002
F-122.2642593
tp66
a(F37.7287051
F-122.4311709
tp67
a(F37.7371374
F-122.43863
tp68
a(F37.7981418
F-122.2720071
tp69
a(F37.8027484
F-122.2834721
tp70
a(F37.8527496
F-122.269777
tp71
a(F37.7544843
F-122.1980482
tp72
a(F37.7250386
F-122.4501913
tp73
a(F37.7248971
F-122.4513944
tp74
a(F37.6843489
F-122.4647348
tp75
a(F37.6853162
F-122.4672595
tp76
a(F37.7254638
F-122.4526281
tp77
a(F37.75284
F-122.1984914
tp78
a(F37.7260618
F-122.4507788
tp79
a(F37.8080188
F-122.3034792
tp80
a(F37.8118483
F-122.2989063
tp81
a(F37.809397
F-122.302742
tp82
a(F37.7181848
F-122.4488846
tp83
a(F37.8123506
F-122.2907819
tp84
a(F37.807179
F-122.2785976
tp85
a(F37.6640428
F-122.4441003
tp86
a(F37.8541296
F-122.2693443
tp87
a(F37.7218605
F-122.4531202
tp88
a(F37.7193422
F-122.4531136
tp89
a(F37.766271
F-122.3875172
tp90
a(F37.7587427
F-122.4261455
tp91
a(F37.7583275
F-122.4259706
tp92
a(F37.8134003
F-122.265589
tp93
a(F37.7361319
F-122.4419128
tp94
a(F37.7644163
F-122.4301235
tp95
a(F37.7837738
F-122.4291532
tp96
a(F37.7053283
F-122.4656034
tp97
a(F37.6860525
F-122.4663208
tp98
a(F37.7834407
F-122.428036
tp99
a(F37.7451021
F-122.4156936
tp100
a(F37.737754
F-122.42551
tp101
a(F37.7374155
F-122.4248516
tp102
a(F37.7513209
F-122.4071699
tp103
a(F37.7642593
F-122.3898599
tp104
a(F37.764141
F-122.391781
tp105
a(F37.7633932
F-122.4043871
tp106
a(F37.7630967
F-122.4092976
tp107
a(F37.738412
F-122.427233
tp108
a(F37.771593
F-122.42697
tp109
a(F37.7725283
F-122.4271671
tp110
a(F37.77906
F-122.428473
tp111
a(F37.780007
F-122.428477
tp112
a(F37.786504
F-122.429979
tp113
a(F37.7173803
F-122.4526681
tp114
a(F37.7177687
F-122.4533987
tp115
a(F37.7604248
F-122.4109731
tp116
a(F37.7596955
F-122.4282483
tp117
a(F37.7344098
F-122.4412227
tp118
a(F37.7583338
F-122.425868
tp119
a(F37.7510273
F-122.4251653
tp120
a(F37.7660813
F-122.4027022
tp121
a(F37.7359728
F-122.4420114
tp122
a(F37.7897435
F-122.4272562
tp123
a(F37.745163
F-122.412387
tp124
a(F37.806243
F-122.408609
tp125
a(F37.7987422
F-122.4189717
tp126
a(F37.7596842
F-122.42766
tp127
a(F37.8530346
F-122.2686973
tp128
a(F37.743223
F-122.417422
tp129
a(F37.7375517
F-122.4332322
tp130
a(F37.745095
F-122.414173
tp131
a(F37.7693915
F-122.4302582
tp132
a(F37.7971097
F-122.4203116
tp133
a(F37.7377378
F-122.4382388
tp134
a(F37.7371968
F-122.439714
tp135
a(F37.757547
F-122.4105338
tp136
a(F37.7574932
F-122.4114232
tp137
a(F37.756564
F-122.4267873
tp138
a(F37.754832
F-122.428849
tp139
a(F37.7665407
F-122.3951184
tp140
a(F37.8018062
F-122.4105327
tp141
a(F37.799778
F-122.41826
tp142
a(F37.7223618
F-122.440541
tp143
a(F37.7394222
F-122.4353605
tp144
a(F37.7675998
F-122.4311953
tp145
a(F37.7377518
F-122.4282677
tp146
a(F37.764606
F-122.4054775
tp147
a(F37.7741791
F-122.4291891
tp148
a(F37.7314506
F-122.4277318
tp149
a(F37.7287473
F-122.434538
tp150
a(F37.7170001
F-122.4434908
tp151
a(F37.7667954
F-122.4311246
tp152
a(F37.7643693
F-122.4308815
tp153
a(F37.761954
F-122.43065
tp154
a(F37.7611611
F-122.4305701
tp155
a(F37.760357
F-122.430497
tp156
a(F37.7998281
F-122.4141243
tp157
a(F37.767488
F-122.400877
tp158
a(F37.729284
F-122.428268
tp159
a(F37.7853696
F-122.4312915
tp160
a(F37.6856908
F-122.4672716
tp161
a(F37.7770972
F-122.4287331
tp162
a(F37.7840593
F-122.42884
tp163
a(F37.804466
F-122.407531
tp164
a(F37.8042404
F-122.4093506
tp165
a(F37.764723
F-122.403527
tp166
a(F37.7626773
F-122.4321262
tp167
a(F37.765628
F-122.388037
tp168
a(F37.745149
F-122.413376
tp169
a(F37.759035
F-122.4125205
tp170
a(F37.7556892
F-122.4278292
tp171
a(F37.766695
F-122.399678
tp172
a(F37.788577
F-122.428712
tp173
a(F37.7292868
F-122.435196
tp174
a(F37.7661396
F-122.4017216
tp175
a(F37.7352759
F-122.4249833
tp176
a(F37.7999873
F-122.416621
tp177
a(F37.799689
F-122.41301
tp178
a(F37.7986465
F-122.4183425
tp179
a(F37.7161738
F-122.446945
tp180
a(F37.8003392
F-122.4125468
tp181
a(F37.8036561
F-122.406518
tp182
a(F37.7528599
F-122.4082139
tp183
a(F37.7519118
F-122.4239945
tp184
a(F37.7431248
F-122.4214934
tp185
a(F37.8010082
F-122.4123213
tp186
a(F37.800325
F-122.4176225
tp187
a(F37.762926
F-122.390698
tp188
a(F37.7618159
F-122.4091755
tp189
a(F37.7760423
F-122.4295537
tp190
a(F37.743447
F-122.417976
tp191
a(F37.7704522
F-122.4284429
tp192
a(F37.7732572
F-122.4289991
tp193
a(F37.780724
F-122.43034
tp194
a(F37.7193201
F-122.4528745
tp195
a(F37.804835
F-122.408427
tp196
a(F37.8071693
F-122.408907
tp197
a(F37.7483001
F-122.409662
tp198
a(F37.791757
F-122.42598
tp199
a(F37.753392
F-122.425945
tp200
a(F37.7590891
F-122.4115973
tp201
a(F37.7474346
F-122.4104835
tp202
a(F37.7473588
F-122.4104795
tp203
a(F37.7496631
F-122.4079073
tp204
a(F37.7968996
F-122.2720474
tp205
a(F37.7323569
F-122.4420459
tp206
a(F37.795932
F-122.421621
tp207
a(F37.795999
F-122.421635
tp208
a(F37.7369604
F-122.4257327
tp209
a(F37.744759
F-122.422439
tp210
a(F37.7684735
F-122.3885398
tp211
a(F37.8020431
F-122.4116009
tp212
a(F37.7460507
F-122.4150416
tp213
a(F37.7939255
F-122.4231393
tp214
a(F37.7666143
F-122.4302023
tp215
a(F37.7436851
F-122.4185692
tp216
a(F37.7453236
F-122.4220798
tp217
a(F37.730136
F-122.426084
tp218
a(F37.7236668
F-122.4551511
tp219
a(F37.7674749
F-122.4010903
tp220
a(F37.7086546
F-122.470438
tp221
a(F37.7200379
F-122.4541175
tp222
a(F37.7239348
F-122.440672
tp223
a(F37.7331042
F-122.4408785
tp224
a(F37.7664491
F-122.3984333
tp225
a(F37.7053749
F-122.4653312
tp226
a(F37.704961
F-122.4653568
tp227
a(F37.8016992
F-122.2742915
tp228
a(F37.803163
F-122.410347
tp229
a(F37.8039359
F-122.4066535
tp230
a(F37.724967
F-122.446292
tp231
a(F37.7928484
F-122.4245128
tp232
a(F37.7307368
F-122.4387022
tp233
a(F37.7307352
F-122.4397479
tp234
a(F37.7218548
F-122.4541249
tp235
a(F37.774903
F-122.431012
tp236
a(F37.6841419
F-122.4639476
tp237
a(F37.7302731
F-122.4374127
tp238
a(F37.7545045
F-122.4074736
tp239
a(F37.7282479
F-122.4317912
tp240
a(F37.765862
F-122.433255
tp241
a(F37.7250835
F-122.4420381
tp242
a(F37.743825
F-122.418912
tp243
a(F37.796332
F-122.417844
tp244
a(F37.7964134
F-122.4178525
tp245
a(F37.736602
F-122.437881
tp246
a(F37.7847853
F-122.428741
tp247
a(F37.7687159
F-122.4283856
tp248
a(F37.8007567
F-122.2893831
tp249
a(F37.6853809
F-122.4643887
tp250
a(F37.797859
F-122.419623
tp251
a(F37.8008351
F-122.2895601
tp252
a(F37.705088
F-122.4654291
tp253
a(F37.808246
F-122.2633841
tp254
a(F37.8018205
F-122.4124569
tp255
a(F37.7962983
F-122.2717155
tp256
a(F37.8019319
F-122.4124825
tp257
a(F37.7046132
F-122.4737082
tp258
a(F37.8053755
F-122.4080431
tp259
a(F37.7031139
F-122.4709362
tp260
a(F37.7995239
F-122.2742498
tp261
a(F37.7266436
F-122.4416804
tp262
a(F37.796121
F-122.2615457
tp263
a(F37.7603153
F-122.4281749
tp264
a(F37.8033826
F-122.4061844
tp265
a(F37.8123607
F-122.2959384
tp266
a(F37.81201
F-122.2965619
tp267
a(F37.737557
F-122.4253673
tp268
a(F37.7597233
F-122.4272094
tp269
a(F37.7055486
F-122.4638903
tp270
a(F37.759835
F-122.4272371
tp271
a(F37.7328574
F-122.4408444
tp272
a(F37.7064229
F-122.4650807
tp273
a(F37.7018672
F-122.4686174
tp274
a(F37.7374857
F-122.4331666
tp275
a(F37.7595517
F-122.4271075
tp276
a(F37.7597762
F-122.4272208
tp277
a(F37.707366
F-122.4666629
tp278
a(F37.7031527
F-122.4666013
tp279
a(F37.74548
F-122.4220151
tp280
a(F37.7908788
F-122.4258042
tp281
a(F37.7031463
F-122.4676031
tp282
a(F37.812085
F-122.2911601
tp283
a(F37.7052111
F-122.4654264
tp284
a(F37.7372168
F-122.4375596
tp285
a(F37.8073692
F-122.3028165
tp286
a(F37.8072336
F-122.3027994
tp287
a(F37.8078875
F-122.4074892
tp288
a(F37.7799928
F-122.4286339
tp289
a(F37.8425237
F-122.2515821
tp290
a(F37.7328863
F-122.4325611
tp291
a(F37.8024249
F-122.2635157
tp292
a(F37.8028834
F-122.2646939
tp293
a(F37.7019291
F-122.4694997
tp294
a(F37.8786786
F-122.1837261
tp295
a(F37.7759494
F-122.2267043
tp296
a(F37.8058999
F-122.2840075
tp297
a(F37.7983825
F-122.2621278
tp298
a(F37.7597749
F-122.4276684
tp299
a(F37.7721271
F-122.2232266
tp300
a(F37.7316581
F-122.428399
tp301
a(F37.7336871
F-122.4263109
tp302
a(F37.8079344
F-122.2743962
tp303
a(F37.8088204
F-122.2742706
tp304
a(F37.8051088
F-122.277561
tp305
a(F37.8102232
F-122.2735964
tp306
a(F37.8108941
F-122.2733348
tp307
a(F37.7597872
F-122.4278129
tp308
a(F37.8054471
F-122.2851996
tp309
a(F37.8123545
F-122.2712912
tp310
a(F37.7180542
F-122.449906
tp311
a(F37.8103974
F-122.2644394
tp312
a(F37.8104921
F-122.2645205
tp313
a(F37.8519404
F-122.2703161
tp314
a(F37.8531744
F-122.2699457
tp315
a(F37.7649982
F-122.3890434
tp316
a(F37.7651954
F-122.3888444
tp317
a(F37.7687536
F-122.4277357
tp318
a(F37.8074879
F-122.263641
tp319
a(F37.8072679
F-122.2635947
tp320
a(F37.8052471
F-122.2624804
tp321
a(F37.8077725
F-122.26359
tp322
a(F37.7483939
F-122.4096701
tp323
a(F37.8535535
F-122.26828
tp324
a(F37.7836865
F-122.4291361
tp325
a(F37.7528012
F-122.4253375
tp326
a(F37.813382
F-122.2654824
tp327
a(F37.7648706
F-122.4084275
tp328
a(F37.7643909
F-122.4090057
tp329
a(F37.7644925
F-122.4092048
tp330
a(F37.7646389
F-122.4092197
tp331
a(F37.764736
F-122.4090163
tp332
a(F37.7694057
F-122.4290689
tp333
a(F37.8025831
F-122.2856124
tp334
a(F37.7086419
F-122.4689923
tp335
a(F37.7834661
F-122.4288333
tp336
a(F37.8299604
F-122.2642496
tp337
a(F37.802899
F-122.4065214
tp338
a(F37.774848
F-122.2272461
tp339
a(F37.8011416
F-122.2761898
tp340
a(F37.8101983
F-122.2892979
tp341
a(F37.7977863
F-122.272013
tp342
a(F37.810997
F-122.3014752
tp343
a(F37.8029775
F-122.2765137
tp344
a(F37.813473
F-122.2685891
tp345
a(F37.8132898
F-122.264919
tp346
a(F37.7781247
F-122.4282919
tp347
a(F37.8127064
F-122.2928861
tp348
a(F37.738047
F-122.426426
tp349
a(F37.811857
F-122.2926178
tp350
a(F37.8073462
F-122.2767173
tp351
a(F37.7045146
F-122.4734494
tp352
a(F37.812659
F-122.2947168
tp353
a(F37.7596241
F-122.4271202
tp354
a(F37.7773576
F-122.222148
tp355
a(F37.7643186
F-122.4316995
tp356
a(F37.7394544
F-122.4343274
tp357
a(F37.7367923
F-122.4382443
tp358
a(F37.8290041
F-122.2631929
tp359
a(F37.8298328
F-122.2684218
tp360
a(F37.7321609
F-122.4279081
tp361
a(F37.7604836
F-122.4100204
tp362
a(F37.7441358
F-122.4194595
tp363
a(F37.8099109
F-122.3014477
tp364
a(F37.802293
F-122.2769408
tp365
a(F37.8013648
F-122.2745804
tp366
a(F37.7632168
F-122.4073226
tp367
a(F37.7631555
F-122.4083314
tp368
a(F37.807695
F-122.3033635
tp369
a(F37.7767068
F-122.2213447
tp370
a(F37.7756703
F-122.2218108
tp371
a(F37.781847
F-122.429041
tp372
a(F37.7472027
F-122.4113206
tp373
a(F37.7470122
F-122.4115522
tp374
a(F37.7469746
F-122.4116053
tp375
a(F37.764132
F-122.4294095
tp376
a(F37.7685722
F-122.4277343
tp377
a(F37.7687392
F-122.4290742
tp378
a(F37.7687685
F-122.4285804
tp379
a(F37.7690617
F-122.4276351
tp380
a(F37.7169713
F-122.4519007
tp381
a(F37.8008379
F-122.2881349
tp382
a(F37.7531671
F-122.1965508
tp383
a(F37.799489
F-122.2741608
tp384
a(F37.8086511
F-122.2744441
tp385
a(F37.7727079
F-122.2215131
tp386
a(F37.8017953
F-122.2855117
tp387
a(F37.7948732
F-122.2711646
tp388
a(F37.8283924
F-122.2646718
tp389
a(F37.8129969
F-122.2709871
tp390
a(F37.801063
F-122.2628969
tp391
a(F37.7762704
F-122.2265454
tp392
a(F37.7927877
F-122.2680322
tp393
a(F37.7769795
F-122.2245421
tp394
a(F37.7765098
F-122.2236741
tp395
a(F37.7752223
F-122.2208748
tp396
a(F37.8075183
F-122.302469
tp397
a(F37.8541906
F-122.2691641
tp398
a(F37.8081016
F-122.2866568
tp399
a(F37.802662
F-122.2851774
tp400
a(F37.8123945
F-122.2676658
tp401
a(F37.7937207
F-122.2610972
tp402
a(F37.8081267
F-122.2747712
tp403
a(F37.7935956
F-122.2612193
tp404
a(F37.7930594
F-122.2626909
tp405
a(F37.7936763
F-122.2616682
tp406
a(F37.7943817
F-122.2614536
tp407
a(F37.7947072
F-122.2616339
tp408
a(F37.8268349
F-122.2666164
tp409
a(F37.7439541
F-122.4225817
tp410
a(F37.8109424
F-122.2730372
tp411
a(F37.7937223
F-122.2704121
tp412
a(F37.8288963
F-122.2632216
tp413
a(F37.8007673
F-122.2894957
tp414
a(F37.799804
F-122.4118531
tp415
a(F37.800793
F-122.2630652
tp416
a(F37.8001149
F-122.2626432
tp417
a(F37.7454431
F-122.4243584
tp418
a(F37.8119957
F-122.2970572
tp419
a(F37.807854
F-122.2855594
tp420
a(F37.7852984
F-122.4300507
tp421
a(F37.8431327
F-122.2531176
tp422
a(F37.8123232
F-122.2911614
tp423
a(F37.7365996
F-122.4402347
tp424
a(F37.8118038
F-122.2641876
tp425
a(F37.8441492
F-122.2493919
tp426
a(F37.8121577
F-122.2911123
tp427
a(F37.7929352
F-122.2684079
tp428
a(F37.8103238
F-122.2734614
tp429
a(F37.8041327
F-122.2772616
tp430
a(F37.8111051
F-122.2995614
tp431
a(F37.7548237
F-122.4278638
tp432
a(F37.7998134
F-122.2622606
tp433
a(F37.8080041
F-122.2763094
tp434
a(F37.8119862
F-122.2896978
tp435
a(F37.7988761
F-122.4139056
tp436
a(F37.7987905
F-122.4151267
tp437
a(F37.8059044
F-122.3027994
tp438
a(F37.8083526
F-122.2633377
tp439
a(F37.8084877
F-122.2635622
tp440
a(F37.8074932
F-122.263524
tp441
a(F37.7665783
F-122.3965757
tp442
a(F37.8088477
F-122.2743216
tp443
a(F37.8020934
F-122.4112062
tp444
a(F37.8016297
F-122.2752534
tp445
a(F37.8004772
F-122.274497
tp446
a(F37.8019357
F-122.2750634
tp447
a(F37.808651
F-122.2636959
tp448
a(F37.8038883
F-122.2836753
tp449
a(F37.7105251
F-122.4693352
tp450
a(F37.7958655
F-122.2611885
tp451
a(F37.7964248
F-122.2614565
tp452
a(F37.7969305
F-122.2616862
tp453
a(F37.7652895
F-122.4316404
tp454
a(F37.7969362
F-122.261127
tp455
a(F37.7316208
F-122.4420418
tp456
a(F37.7025983
F-122.4708892
tp457
a(F37.7033166
F-122.4709442
tp458
a(F37.8032644
F-122.2735071
tp459
a(F37.701743
F-122.4707511
tp460
a(F37.7435437
F-122.4218907
tp461
a(F37.746881
F-122.41161
tp462
a(F37.7966911
F-122.2714396
tp463
a(F37.7234543
F-122.4411055
tp464
a(F37.787651
F-122.428525
tp465
a(F37.7665072
F-122.3946207
tp466
a(F37.7670331
F-122.3861067
tp467
a(F37.7233388
F-122.441054
tp468
a(F37.7315314
F-122.4420414
tp469
a(F37.7665584
F-122.3946898
tp470
a(F37.7193698
F-122.443086
tp471
a(F37.7251298
F-122.4450835
tp472
a(F37.7518242
F-122.4239794
tp473
a(F37.7519959
F-122.4239967
tp474
a(F37.8451012
F-122.2518399
tp475
a(F37.7989917
F-122.2619036
tp476
a(F37.7348252
F-122.4266448
tp477
a(F37.8695376
F-122.2678703
tp478
a(F37.7966222
F-122.2713393
tp479
a(F37.7686502
F-122.4279872
tp480
a(F37.8104548
F-122.273217
tp481
a(F37.7462453
F-122.4244243
tp482
a(F37.7546555
F-122.4277316
tp483
a(F37.808854
F-122.3038823
tp484
a(F37.8081022
F-122.3035132
tp485
a(F37.8272361
F-122.2690737
tp486
a(F37.853474
F-122.2697879
tp487
a(F37.7948693
F-122.4228127
tp488
a(F37.7303512
F-122.4369329
tp489
a(F37.8036532
F-122.2766411
tp490
a(F37.8036551
F-122.4064335
tp491
a(F37.7226224
F-122.1614948
tp492
a(F37.799616
F-122.4157736
tp493
a(F37.8522902
F-122.2687659
tp494
a(F37.8081037
F-122.4089424
tp495
a(F37.7582362
F-122.4257094
tp496
a(F37.7574315
F-122.4256321
tp497
a(F37.7518446
F-122.4250952
tp498
a(F37.7948263
F-122.4231483
tp499
a(F37.7313666
F-122.4279595
tp500
a(F37.7986301
F-122.273999
tp501
a(F37.8046679
F-122.26358
tp502
a(F37.7676897
F-122.3856433
tp503
a(F37.7340473
F-122.4397519
tp504
a(F37.7991586
F-122.2620936
tp505
a(F37.7463258
F-122.4247138
tp506
a(F37.8095182
F-122.2739035
tp507
a(F37.6838076
F-122.4645122
tp508
a(F37.7671458
F-122.4000243
tp509
a(F37.7678475
F-122.3854358
tp510
a(F37.716576
F-122.44518
tp511
a(F37.7309924
F-122.4349314
tp512
a(F37.7306848
F-122.4356243
tp513
a(F37.7982063
F-122.2619552
tp514
a(F37.7382685
F-122.4363116
tp515
a(F37.7649562
F-122.4322715
tp516
a(F37.7927153
F-122.2666341
tp517
a(F37.81224
F-122.2713382
tp518
a(F37.798162
F-122.4196299
tp519
a(F37.7286731
F-122.4313526
tp520
a(F37.7288043
F-122.4314168
tp521
a(F37.8017224
F-122.2743573
tp522
a(F37.8515486
F-122.2701761
tp523
a(F37.8297231
F-122.2684493
tp524
a(F37.7848482
F-122.4295004
tp525
a(F37.7528041
F-122.4091367
tp526
a(F37.7495996
F-122.4088477
tp527
a(F37.8094747
F-122.263921
tp528
a(F37.7959604
F-122.2717393
tp529
a(F37.7366201
F-122.4242575
tp530
a(F37.7632775
F-122.4063242
tp531
a(F37.7989095
F-122.261948
tp532
a(F37.7765025
F-122.4296466
tp533
a(F37.7501102
F-122.4271569
tp534
a(F37.7493102
F-122.4270776
tp535
a(F37.7485027
F-122.4270006
tp536
a(F37.7853722
F-122.4295112
tp537
a(F37.8122192
F-122.2910972
tp538
a(F37.8123085
F-122.2910986
tp539
a(F37.8135751
F-122.2903039
tp540
a(F37.798838
F-122.418132
tp541
a(F37.7559899
F-122.40958
tp542
a(F37.755942
F-122.4094565
tp543
a(F37.7559999
F-122.4084974
tp544
a(F37.7991949
F-122.4190459
tp545
a(F37.8074962
F-122.4076575
tp546
a(F37.8036426
F-122.2767618
tp547
a(F37.8076444
F-122.4075601
tp548
a(F37.8074302
F-122.4077019
tp549
a(F37.7534545
F-122.4264872
tp550
a(F37.7991423
F-122.4156773
tp551
a(F37.8039135
F-122.2767033
tp552
a(F37.8034116
F-122.2765204
tp553
a(F37.7510363
F-122.4250176
tp554
a(F37.7462369
F-122.4245565
tp555
a(F37.795945
F-122.421768
tp556
a(F37.7286833
F-122.434423
tp557
a(F37.7359537
F-122.4246479
tp558
a(F37.7764592
F-122.228943
tp559
a(F37.7730071
F-122.4272597
tp560
a(F37.7455563
F-122.4152264
tp561
a(F37.7308725
F-122.4268024
tp562
a(F37.7254621
F-122.4523733
tp563
a(F37.7241128
F-122.453853
tp564
a(F37.7254637
F-122.4527613
tp565
a(F37.7247408
F-122.449725
tp566
a.