(lp0
(F37.77822
F-122.4122052
tp1
a(F37.7914728
F-122.3992264
tp2
a(F37.776396
F-122.408484
tp3
a(F37.7819317
F-122.392176
tp4
a(F37.7782316
F-122.3935568
tp5
a(F37.782073
F-122.412221
tp6
a(F37.7867734
F-122.3920702
tp7
a(F37.791709
F-122.406345
tp8
a(F37.7842103
F-122.3921219
tp9
a(F37.7764786
F-122.4019898
tp10
a(F37.7760452
F-122.4025378
tp11
a(F37.7785237
F-122.398325
tp12
a(F37.7926516
F-122.4044389
tp13
a(F37.7924586
F-122.4059423
tp14
a(F37.778855
F-122.3927644
tp15
a(F37.7892267
F-122.4086152
tp16
a(F37.7781564
F-122.4029704
tp17
a(F37.7763152
F-122.4073052
tp18
a(F37.7899209
F-122.3942772
tp19
a(F37.777092
F-122.410506
tp20
a(F37.7784377
F-122.3932948
tp21
a(F37.7880801
F-122.4100713
tp22
a(F37.7783334
F-122.3965439
tp23
a(F37.788323
F-122.3932091
tp24
a(F37.7763276
F-122.4083921
tp25
a(F37.7786114
F-122.4023944
tp26
a(F37.777619
F-122.41187
tp27
a(F37.7903805
F-122.4071212
tp28
a(F37.7786073
F-122.4013208
tp29
a(F37.7766543
F-122.4121666
tp30
a(F37.791593
F-122.401231
tp31
a(F37.7800112
F-122.4119409
tp32
a(F37.791461
F-122.405411
tp33
a(F37.791605
F-122.405473
tp34
a(F37.7871475
F-122.4098859
tp35
a(F37.7801945
F-122.3910808
tp36
a(F37.7856693
F-122.3923419
tp37
a(F37.7832334
F-122.3923781
tp38
a(F37.792258
F-122.399763
tp39
a(F37.7798982
F-122.392998
tp40
a(F37.783214
F-122.410765
tp41
a(F37.7841481
F-122.4109535
tp42
a(F37.792108
F-122.400933
tp43
a(F37.7776079
F-122.3985186
tp44
a(F37.787515
F-122.392994
tp45
a(F37.7849785
F-122.4118967
tp46
a(F37.7817774
F-122.392186
tp47
a(F37.7885314
F-122.3942073
tp48
a(F37.7778043
F-122.4003134
tp49
a(F37.7784079
F-122.3949581
tp50
a(F37.7927384
F-122.407644
tp51
a(F37.7785754
F-122.3946458
tp52
a(F37.7915251
F-122.3981299
tp53
a(F37.7902983
F-122.4071294
tp54
a(F37.779648
F-122.411484
tp55
a(F37.791899
F-122.402571
tp56
a(F37.78601
F-122.4113347
tp57
a(F37.7766225
F-122.4049117
tp58
a(F37.7761665
F-122.4054899
tp59
a(F37.7892287
F-122.4085987
tp60
a(F37.7903615
F-122.3948277
tp61
a(F37.7825988
F-122.3922233
tp62
a(F37.788729
F-122.3927863
tp63
a(F37.7764854
F-122.4075191
tp64
a(F37.7764657
F-122.4037328
tp65
a(F37.7766519
F-122.4043932
tp66
a(F37.7917673
F-122.3950237
tp67
a(F37.791569
F-122.3972644
tp68
a(F37.7916743
F-122.3964688
tp69
a(F37.791734
F-122.3982976
tp70
a(F37.7916949
F-122.3982349
tp71
a(F37.7938262
F-122.3956943
tp72
a(F37.7812188
F-122.4116035
tp73
a(F37.791534
F-122.398882
tp74
a(F37.7902739
F-122.4071632
tp75
a(F37.7913278
F-122.4071633
tp76
a(F37.7921838
F-122.404667
tp77
a.