(lp0
(F37.7565249
F-122.4389361
tp1
a(F37.7407155
F-122.4041022
tp2
a(F37.718943
F-122.427193
tp3
a(F37.7500168
F-122.3928963
tp4
a(F37.7087485
F-122.4512722
tp5
a(F37.7033364
F-122.4538042
tp6
a(F37.7299948
F-122.4556279
tp7
a(F37.9006692
F-122.2909842
tp8
a(F37.9024954
F-122.2907149
tp9
a(F37.7263961
F-122.4496617
tp10
a(F37.7851585
F-122.2340185
tp11
a(F37.8797296
F-122.2623629
tp12
a(F37.8504516
F-122.282487
tp13
a(F37.8932497
F-122.1190185
tp14
a(F37.8929131
F-122.118246
tp15
a(F37.9050176
F-122.0636727
tp16
a(F37.8766749
F-122.2595925
tp17
a(F37.8747644
F-122.2561229
tp18
a(F37.7597026
F-122.1863178
tp19
a(F37.8789333
F-122.2887668
tp20
a(F37.8928475
F-122.1182004
tp21
a(F37.8927544
F-122.1183131
tp22
a(F37.8930047
F-122.1180344
tp23
a(F37.8930507
F-122.1183291
tp24
a(F37.8923069
F-122.117185
tp25
a(F37.8925997
F-122.1177446
tp26
a(F37.8366618
F-122.2667975
tp27
a(F37.8366004
F-122.2669021
tp28
a(F37.8359797
F-122.2670308
tp29
a(F37.8008304
F-122.2487329
tp30
a(F37.8008325
F-122.2488536
tp31
a(F37.8007313
F-122.2484569
tp32
a(F37.803541
F-122.429965
tp33
a(F37.898496
F-122.2941308
tp34
a(F37.705085
F-122.1239018
tp35
a(F37.8458392
F-122.272578
tp36
a(F37.8462043
F-122.273099
tp37
a(F37.8459147
F-122.2725512
tp38
a(F37.8462878
F-122.2730242
tp39
a(F37.9357025
F-122.3571041
tp40
a(F37.9357167
F-122.3495298
tp41
a(F37.8596657
F-122.2797935
tp42
a(F37.8976512
F-122.2928242
tp43
a(F37.7624764
F-122.4459593
tp44
a(F37.7696445
F-122.4424535
tp45
a(F37.8068548
F-122.4259444
tp46
a(F37.9265472
F-122.3093905
tp47
a(F37.8918437
F-122.1238409
tp48
a(F37.8102179
F-122.4228327
tp49
a(F37.7806229
F-122.236852
tp50
a(F37.8491227
F-122.276021
tp51
a(F37.8636009
F-122.2849935
tp52
a(F37.7335693
F-122.4126004
tp53
a(F37.936671
F-122.3570874
tp54
a(F37.9368825
F-122.3570788
tp55
a(F37.7403625
F-122.4015959
tp56
a(F37.6672577
F-122.4337647
tp57
a(F37.7645321
F-122.2141683
tp58
a(F37.8648966
F-122.2886136
tp59
a(F37.9379035
F-122.3535702
tp60
a(F37.938114
F-122.3550207
tp61
a(F37.9381457
F-122.355812
tp62
a(F37.9375679
F-122.3561669
tp63
a(F37.754221
F-122.3915662
tp64
a(F37.7298473
F-122.1554597
tp65
a(F37.6993789
F-122.4811084
tp66
a(F37.6999567
F-122.4818758
tp67
a(F37.6994318
F-122.4809233
tp68
a(F37.7445639
F-122.3995718
tp69
a(F37.8866121
F-122.1832141
tp70
a(F37.8481676
F-122.2385987
tp71
a(F37.7172607
F-122.1658636
tp72
a(F37.7340137
F-122.4570456
tp73
a(F37.7867525
F-122.274547
tp74
a(F37.7866218
F-122.2745401
tp75
a(F37.8068137
F-122.3150845
tp76
a(F37.8822585
F-122.2708299
tp77
a(F37.762296
F-122.446032
tp78
a(F37.7628737
F-122.4460633
tp79
a(F37.7622132
F-122.4461771
tp80
a(F37.7677835
F-122.4430172
tp81
a(F37.7695298
F-122.4412543
tp82
a(F37.7677062
F-122.4429661
tp83
a(F37.7690082
F-122.4402243
tp84
a(F37.853062
F-122.2865659
tp85
a(F37.9009826
F-122.3104436
tp86
a(F37.8174845
F-122.2540486
tp87
a(F37.7664338
F-122.2383175
tp88
a(F37.766446
F-122.2391077
tp89
a(F37.7665332
F-122.2394694
tp90
a(F37.6707744
F-122.4344564
tp91
a(F37.7315109
F-122.4168283
tp92
a(F37.8984912
F-122.3063649
tp93
a(F37.7300814
F-122.4551399
tp94
a(F37.7952922
F-122.3015791
tp95
a(F37.836462
F-122.2771821
tp96
a(F37.8369182
F-122.2765425
tp97
a(F37.869191
F-122.255397
tp98
a(F37.8692411
F-122.2559373
tp99
a(F37.9278905
F-122.3235824
tp100
a(F37.9233559
F-122.323573
tp101
a(F37.8302806
F-122.2832508
tp102
a(F37.6338652
F-122.4203807
tp103
a(F37.6345768
F-122.4203727
tp104
a(F37.8767087
F-122.2585932
tp105
a(F37.8738043
F-122.1831327
tp106
a(F37.7272812
F-122.1683428
tp107
a(F37.8749122
F-122.2952487
tp108
a(F37.9119843
F-122.3069009
tp109
a(F37.8914104
F-122.123735
tp110
a(F37.9114152
F-122.3030567
tp111
a(F37.600893
F-122.3831037
tp112
a(F37.8431246
F-122.2367595
tp113
a(F37.8437999
F-122.2371304
tp114
a(F37.9065476
F-122.3076833
tp115
a(F37.9059438
F-122.3072669
tp116
a(F37.8454361
F-122.236429
tp117
a(F37.9188194
F-122.3139133
tp118
a(F37.9188846
F-122.3137802
tp119
a(F37.9278731
F-122.3120093
tp120
a(F37.8550375
F-122.2837216
tp121
a(F37.898224
F-122.118575
tp122
a(F37.873125
F-122.186677
tp123
a(F37.6642454
F-122.4568079
tp124
a(F37.9357233
F-122.3485586
tp125
a(F37.9384672
F-122.3485392
tp126
a(F37.7247194
F-122.426008
tp127
a(F37.7485409
F-122.3936822
tp128
a(F37.7473263
F-122.3938758
tp129
a(F37.8218141
F-122.2771441
tp130
a(F37.8215498
F-122.2768852
tp131
a(F37.8699179
F-122.1770535
tp132
a(F37.9308845
F-122.31827
tp133
a(F37.9116508
F-122.3061437
tp134
a(F37.9194544
F-122.312348
tp135
a(F37.9306854
F-122.3215079
tp136
a(F37.912089
F-122.3066345
tp137
a(F37.8899275
F-122.1211702
tp138
a(F37.925334
F-122.3256953
tp139
a(F37.9254433
F-122.3271914
tp140
a(F37.925617
F-122.326484
tp141
a(F37.9255379
F-122.326561
tp142
a(F37.9246992
F-122.3251811
tp143
a(F37.9243161
F-122.3228163
tp144
a(F37.924253
F-122.3228093
tp145
a(F37.8416871
F-122.2383558
tp146
a(F37.904528
F-122.3086966
tp147
a(F37.903902
F-122.3082736
tp148
a(F37.934055
F-122.355176
tp149
a(F37.9195394
F-122.316718
tp150
a(F37.9004224
F-122.2918014
tp151
a(F37.8802981
F-122.2652764
tp152
a(F37.8805411
F-122.2647872
tp153
a(F37.8456903
F-122.2361581
tp154
a(F37.8725811
F-122.1835943
tp155
a(F37.8708671
F-122.2542077
tp156
a(F37.9040088
F-122.2903527
tp157
a(F37.8905378
F-122.1185225
tp158
a(F37.9263093
F-122.325396
tp159
a(F37.9047705
F-122.2903186
tp160
a(F37.9354994
F-122.3542273
tp161
a(F37.6435883
F-122.4238502
tp162
a(F37.8909085
F-122.1274253
tp163
a(F37.911752
F-122.3022607
tp164
a(F37.9234188
F-122.3107216
tp165
a(F37.6949828
F-122.1195689
tp166
a(F37.6959697
F-122.1189233
tp167
a(F37.8162914
F-122.2511823
tp168
a(F37.8211182
F-122.2560901
tp169
a(F37.6550564
F-122.4340956
tp170
a(F37.6549802
F-122.4346658
tp171
a(F37.6557306
F-122.4353196
tp172
a(F37.6557125
F-122.4334329
tp173
a(F37.6555432
F-122.4338376
tp174
a(F37.6561501
F-122.4326232
tp175
a(F37.6555937
F-122.4337253
tp176
a(F37.656153
F-122.4323999
tp177
a(F37.9025441
F-122.3096294
tp178
a(F37.9196258
F-122.3121924
tp179
a(F37.9199729
F-122.3114031
tp180
a(F37.8207224
F-122.254525
tp181
a(F37.6860428
F-122.4770694
tp182
a(F37.8993037
F-122.1261105
tp183
a(F37.8994917
F-122.1234355
tp184
a(F37.90003
F-122.121796
tp185
a(F37.6305452
F-122.4120198
tp186
a(F37.9062696
F-122.2921369
tp187
a(F37.9035794
F-122.063982
tp188
a(F37.9399655
F-122.3524749
tp189
a(F37.753165
F-122.399779
tp190
a(F37.7850152
F-122.2343204
tp191
a(F37.7003455
F-122.4828134
tp192
a(F37.6541394
F-122.4442813
tp193
a(F37.654951
F-122.4396948
tp194
a(F37.860714
F-122.2783433
tp195
a(F37.8607641
F-122.2782928
tp196
a(F37.7434807
F-122.184416
tp197
a(F37.747415
F-122.1841397
tp198
a(F37.9313302
F-122.3194949
tp199
a(F37.6533607
F-122.4460204
tp200
a(F37.9054098
F-122.2903204
tp201
a(F37.8327042
F-122.2555964
tp202
a(F37.751597
F-122.1848043
tp203
a(F37.9075823
F-122.0664341
tp204
a(F37.9195123
F-122.316203
tp205
a(F37.9196669
F-122.3198423
tp206
a(F37.86998
F-122.2949028
tp207
a(F37.8808442
F-122.2636774
tp208
a(F37.8779369
F-122.2922085
tp209
a(F37.6987559
F-122.4798086
tp210
a(F37.7043984
F-122.4825107
tp211
a(F37.6732072
F-122.4448882
tp212
a(F37.673347
F-122.4475269
tp213
a(F37.6712452
F-122.4379461
tp214
a(F37.6713895
F-122.4379032
tp215
a(F37.6728459
F-122.4393247
tp216
a(F37.6731177
F-122.4411701
tp217
a(F37.6813884
F-122.4516629
tp218
a(F37.8832967
F-122.1758725
tp219
a(F37.7453178
F-122.4400678
tp220
a(F37.929389
F-122.0569718
tp221
a(F37.938424
F-122.353482
tp222
a(F37.9384599
F-122.3495542
tp223
a(F37.9340601
F-122.356165
tp224
a(F37.876634
F-122.2598992
tp225
a(F37.8768374
F-122.2594325
tp226
a(F37.873725
F-122.186577
tp227
a(F37.8792172
F-122.1729092
tp228
a(F37.923895
F-122.3104888
tp229
a(F37.9027375
F-122.3109797
tp230
a(F37.7258515
F-122.1697135
tp231
a(F37.7233192
F-122.1709752
tp232
a(F37.8063883
F-122.2562405
tp233
a(F37.7787535
F-122.2381371
tp234
a(F37.9099328
F-122.3065057
tp235
a(F37.5975262
F-122.3892727
tp236
a(F37.8233896
F-122.2887818
tp237
a(F37.8237116
F-122.2890447
tp238
a(F37.9202997
F-122.3198284
tp239
a(F37.7015989
F-122.4844628
tp240
a(F37.7013609
F-122.4847565
tp241
a(F37.897024
F-122.119175
tp242
a(F37.8764201
F-122.2574373
tp243
a(F37.8857654
F-122.1887199
tp244
a(F37.9251599
F-122.325427
tp245
a(F37.8848262
F-122.1776737
tp246
a(F37.8805754
F-122.2659339
tp247
a(F37.8042971
F-122.2515941
tp248
a(F37.7314549
F-122.4201894
tp249
a(F37.6307861
F-122.4116393
tp250
a(F37.6308832
F-122.4109326
tp251
a(F37.8572887
F-122.2574162
tp252
a(F37.7412216
F-122.4484603
tp253
a(F37.8796289
F-122.2740093
tp254
a(F37.8475861
F-122.2383257
tp255
a(F37.9312433
F-122.3203492
tp256
a(F37.7897079
F-122.275471
tp257
a(F37.9076863
F-122.306221
tp258
a(F37.8953584
F-122.294847
tp259
a(F37.8950087
F-122.2948972
tp260
a(F37.8949892
F-122.2949928
tp261
a(F37.7439352
F-122.4393896
tp262
a(F37.8904632
F-122.1223612
tp263
a(F37.8235018
F-122.2889449
tp264
a(F37.6296345
F-122.4114165
tp265
a(F37.6773134
F-122.452626
tp266
a(F37.6741475
F-122.4532451
tp267
a(F37.9306214
F-122.3222895
tp268
a(F37.9278934
F-122.3230794
tp269
a(F37.7982319
F-122.2485067
tp270
a(F37.8174934
F-122.252964
tp271
a(F37.8962271
F-122.1167131
tp272
a(F37.849101
F-122.2758378
tp273
a(F37.9210162
F-122.3212249
tp274
a(F37.6338717
F-122.4148988
tp275
a(F37.8857635
F-122.1824103
tp276
a(F37.7253596
F-122.4662984
tp277
a(F37.7239146
F-122.4653731
tp278
a(F37.7225712
F-122.4672777
tp279
a(F37.7218164
F-122.4686297
tp280
a(F37.8571352
F-122.2522948
tp281
a(F37.8567376
F-122.2519986
tp282
a(F37.9110742
F-122.3038473
tp283
a(F37.8465607
F-122.2740563
tp284
a(F37.8490588
F-122.2761818
tp285
a(F37.7197424
F-122.173438
tp286
a(F37.9064071
F-122.0642082
tp287
a(F37.8474491
F-122.2742535
tp288
a(F37.9368691
F-122.3475372
tp289
a(F37.9270465
F-122.3245869
tp290
a(F37.8315575
F-122.2476375
tp291
a(F37.8314795
F-122.2473403
tp292
a(F37.8859695
F-122.1933746
tp293
a(F37.8578837
F-122.2557344
tp294
a(F37.8597082
F-122.2577778
tp295
a(F37.6953439
F-122.1257197
tp296
a(F37.7021176
F-122.4527554
tp297
a(F37.9025036
F-122.2906388
tp298
a(F37.9399676
F-122.3505061
tp299
a(F37.8784548
F-122.2911362
tp300
a(F37.720111
F-122.1737769
tp301
a(F37.9272018
F-122.3110904
tp302
a(F37.6792085
F-122.4706552
tp303
a(F37.6781574
F-122.4703643
tp304
a(F37.6792047
F-122.4707541
tp305
a(F37.6779733
F-122.4704028
tp306
a(F37.6755351
F-122.4684943
tp307
a(F37.675586
F-122.468395
tp308
a(F37.9075637
F-122.3055944
tp309
a(F37.9288287
F-122.3123653
tp310
a(F37.900078
F-122.3091681
tp311
a(F37.7668579
F-122.2283879
tp312
a(F37.6335912
F-122.415701
tp313
a(F37.6665696
F-122.434029
tp314
a(F37.8347062
F-122.2805459
tp315
a(F37.8998929
F-122.2936528
tp316
a(F37.7606843
F-122.3856089
tp317
a(F37.9240119
F-122.3243127
tp318
a(F37.7354466
F-122.4098235
tp319
a(F37.7757978
F-122.4464843
tp320
a(F37.7493692
F-122.4393904
tp321
a(F37.7524288
F-122.3946664
tp322
a(F37.8955651
F-122.1160886
tp323
a(F37.709813
F-122.445503
tp324
a(F37.9197187
F-122.3132973
tp325
a(F37.8983338
F-122.3055342
tp326
a(F37.9319606
F-122.3217041
tp327
a(F37.743094
F-122.401996
tp328
a(F37.8007729
F-122.432864
tp329
a(F37.71445
F-122.4328199
tp330
a(F37.8865825
F-122.1842573
tp331
a(F37.7345672
F-122.4569256
tp332
a(F37.8462113
F-122.2370432
tp333
a(F37.8411264
F-122.2383046
tp334
a(F37.8066845
F-122.3151187
tp335
a(F37.8082231
F-122.313735
tp336
a(F37.7304714
F-122.4594571
tp337
a(F37.7352281
F-122.4099007
tp338
a(F37.7876533
F-122.4437557
tp339
a(F37.5970247
F-122.3842553
tp340
a(F37.709187
F-122.437027
tp341
a(F37.709064
F-122.436941
tp342
a(F37.7795372
F-122.2372212
tp343
a(F37.8039402
F-122.4267696
tp344
a(F37.8035291
F-122.4300593
tp345
a(F37.7233872
F-122.4667076
tp346
a(F37.7255454
F-122.4663541
tp347
a(F37.7391869
F-122.406032
tp348
a(F37.7364907
F-122.4518843
tp349
a(F37.7672224
F-122.4463859
tp350
a(F37.7671133
F-122.4472124
tp351
a(F37.8050874
F-122.4257594
tp352
a(F37.7618829
F-122.4453093
tp353
a(F37.7108313
F-122.4590105
tp354
a(F37.8390961
F-122.2751276
tp355
a(F37.7196708
F-122.4662654
tp356
a(F37.7196519
F-122.4698613
tp357
a(F37.7196398
F-122.4707594
tp358
a(F37.7196323
F-122.4716574
tp359
a(F37.7579454
F-122.3882572
tp360
a(F37.8966638
F-122.2950798
tp361
a(F37.9087687
F-122.0678073
tp362
a(F37.7831347
F-122.44454
tp363
a(F37.724199
F-122.421847
tp364
a(F37.7558977
F-122.4378049
tp365
a(F37.802376
F-122.431498
tp366
a(F37.7548294
F-122.3977349
tp367
a(F37.710069
F-122.449463
tp368
a(F37.75196
F-122.436377
tp369
a(F37.750225
F-122.4384141
tp370
a(F37.757477
F-122.396013
tp371
a(F37.751357
F-122.394167
tp372
a(F37.729089
F-122.418744
tp373
a(F37.757762
F-122.443261
tp374
a(F37.7885763
F-122.4439506
tp375
a(F37.7264172
F-122.4653217
tp376
a(F37.8858575
F-122.1904874
tp377
a(F37.8862258
F-122.1908884
tp378
a(F37.757038
F-122.441683
tp379
a(F37.8441333
F-122.2374889
tp380
a(F37.771886
F-122.447325
tp381
a(F37.6303935
F-122.4126594
tp382
a(F37.7353013
F-122.4100335
tp383
a(F37.712821
F-122.435019
tp384
a(F37.7542972
F-122.4376491
tp385
a(F37.7526991
F-122.437509
tp386
a(F37.7970898
F-122.4354902
tp387
a(F37.7689732
F-122.4433593
tp388
a(F37.770426
F-122.443649
tp389
a(F37.776958
F-122.444967
tp390
a(F37.778837
F-122.445347
tp391
a(F37.820801
F-122.2575288
tp392
a(F37.7835122
F-122.446021
tp393
a(F37.78537
F-122.446422
tp394
a(F37.7795931
F-122.4434774
tp395
a(F37.779549
F-122.4438674
tp396
a(F37.7178602
F-122.4722568
tp397
a(F37.879292
F-122.2727027
tp398
a(F37.781872
F-122.443831
tp399
a(F37.8444676
F-122.2690767
tp400
a(F37.72737
F-122.419883
tp401
a(F37.7349604
F-122.4560327
tp402
a(F37.7145703
F-122.4788177
tp403
a(F37.6003825
F-122.3844941
tp404
a(F37.7980212
F-122.435678
tp405
a(F37.7319365
F-122.4576527
tp406
a(F37.7321777
F-122.45773
tp407
a(F37.7304217
F-122.4569509
tp408
a(F37.7553473
F-122.2107018
tp409
a(F37.7739376
F-122.4461152
tp410
a(F37.7232101
F-122.427273
tp411
a(F37.847742
F-122.2397162
tp412
a(F37.6732709
F-122.4542504
tp413
a(F37.9282312
F-122.3137361
tp414
a(F37.7138133
F-122.4354116
tp415
a(F37.799161
F-122.434224
tp416
a(F37.7996328
F-122.4343283
tp417
a(F37.6557239
F-122.4305764
tp418
a(F37.7691907
F-122.4459378
tp419
a(F37.769294
F-122.4451191
tp420
a(F37.7255754
F-122.4673411
tp421
a(F37.5974541
F-122.3891934
tp422
a(F37.6027099
F-122.3843751
tp423
a(F37.7580008
F-122.3873288
tp424
a(F37.7552216
F-122.3909362
tp425
a(F37.780646
F-122.4436161
tp426
a(F37.793648
F-122.439853
tp427
a(F37.7422108
F-122.4462976
tp428
a(F37.8521531
F-122.2866088
tp429
a(F37.7445461
F-122.4391308
tp430
a(F37.7268806
F-122.462566
tp431
a(F37.7304366
F-122.4193727
tp432
a(F37.727627
F-122.4189
tp433
a(F37.792723
F-122.439666
tp434
a(F37.786481
F-122.445208
tp435
a(F37.8685925
F-122.2943949
tp436
a(F37.7584193
F-122.4443419
tp437
a(F37.721258
F-122.427645
tp438
a(F37.8225508
F-122.2876945
tp439
a(F37.6454286
F-122.4100494
tp440
a(F37.710231
F-122.451906
tp441
a(F37.8448814
F-122.2374892
tp442
a(F37.7907534
F-122.4410068
tp443
a(F37.7109134
F-122.4352922
tp444
a(F37.7268908
F-122.4632957
tp445
a(F37.7701805
F-122.4432742
tp446
a(F37.8288456
F-122.2832825
tp447
a(F37.762674
F-122.443751
tp448
a(F37.7410765
F-122.4471294
tp449
a(F37.7368352
F-122.4091165
tp450
a(F37.710731
F-122.45253
tp451
a(F37.711555
F-122.45356
tp452
a(F37.8295506
F-122.2832803
tp453
a(F37.7590263
F-122.4460911
tp454
a(F37.7386198
F-122.4069428
tp455
a(F37.8177243
F-122.2567003
tp456
a(F37.7380058
F-122.4070112
tp457
a(F37.7293195
F-122.4615667
tp458
a(F37.7691648
F-122.2081574
tp459
a(F37.7523447
F-122.2099023
tp460
a(F37.740962
F-122.401556
tp461
a(F37.7502465
F-122.2040042
tp462
a(F37.7568867
F-122.4413194
tp463
a(F37.7600211
F-122.1830917
tp464
a(F37.7571366
F-122.1827335
tp465
a(F37.5968471
F-122.3855224
tp466
a(F37.7404504
F-122.4499724
tp467
a(F37.8237972
F-122.2531071
tp468
a(F37.8240855
F-122.2527006
tp469
a(F37.74284
F-122.40308
tp470
a(F37.8731369
F-122.2538841
tp471
a(F37.857824
F-122.2490906
tp472
a(F37.8110163
F-122.2507515
tp473
a(F37.8745054
F-122.2548969
tp474
a(F37.7168855
F-122.4742835
tp475
a(F37.7748762
F-122.4463012
tp476
a(F37.7810701
F-122.4446381
tp477
a(F37.8476466
F-122.2776117
tp478
a(F37.8622026
F-122.2810432
tp479
a(F37.8587185
F-122.2800755
tp480
a(F37.7368781
F-122.452051
tp481
a(F37.7370651
F-122.4520501
tp482
a(F37.710403
F-122.447988
tp483
a(F37.7181759
F-122.4726152
tp484
a(F37.7376872
F-122.452256
tp485
a(F37.8195854
F-122.2792264
tp486
a(F37.7080402
F-122.450713
tp487
a(F37.735519
F-122.410006
tp488
a(F37.7800887
F-122.237198
tp489
a(F37.7403591
F-122.4499046
tp490
a(F37.7694272
F-122.4418626
tp491
a(F37.7680263
F-122.4403687
tp492
a(F37.768119
F-122.4402136
tp493
a(F37.7497972
F-122.3932908
tp494
a(F37.7633503
F-122.4467572
tp495
a(F37.7572084
F-122.396378
tp496
a(F37.740377
F-122.4027
tp497
a(F37.725653
F-122.421356
tp498
a(F37.7251394
F-122.4233456
tp499
a(F37.8235557
F-122.2887487
tp500
a(F37.758264
F-122.444247
tp501
a(F37.7578701
F-122.4433951
tp502
a(F37.7577174
F-122.4430625
tp503
a(F37.7330679
F-122.4137706
tp504
a(F37.7444403
F-122.4392302
tp505
a(F37.7421493
F-122.4359845
tp506
a(F37.673274
F-122.4545395
tp507
a(F37.6730697
F-122.4543351
tp508
a(F37.7711467
F-122.4455446
tp509
a(F37.7969751
F-122.3031665
tp510
a(F37.7403887
F-122.4054461
tp511
a(F37.747033
F-122.398836
tp512
a(F37.6305972
F-122.4113832
tp513
a(F37.6815693
F-122.4748887
tp514
a(F37.7141739
F-122.4276358
tp515
a(F37.7343605
F-122.4113813
tp516
a(F37.9063754
F-122.0640392
tp517
a(F37.8542527
F-122.2432486
tp518
a(F37.8966943
F-122.3014575
tp519
a(F37.7428439
F-122.4366633
tp520
a(F37.8221091
F-122.2850078
tp521
a(F37.708553
F-122.437467
tp522
a(F37.7681763
F-122.4408144
tp523
a(F37.7115485
F-122.4733157
tp524
a(F37.666924
F-122.4535646
tp525
a(F37.6690932
F-122.4526798
tp526
a(F37.6545457
F-122.4482036
tp527
a(F37.7850681
F-122.2772657
tp528
a(F37.9283689
F-122.3136992
tp529
a(F37.7838521
F-122.2113518
tp530
a(F37.7832416
F-122.2106995
tp531
a(F37.7825836
F-122.2099871
tp532
a(F37.7819945
F-122.2093193
tp533
a(F37.7881928
F-122.2784362
tp534
a(F37.6644039
F-122.4501576
tp535
a(F37.6624335
F-122.453093
tp536
a(F37.6581936
F-122.4522519
tp537
a(F37.8586982
F-122.28023
tp538
a(F37.6609387
F-122.4512992
tp539
a(F37.7312342
F-122.420188
tp540
a(F37.7393166
F-122.1964172
tp541
a(F37.8798404
F-122.1715102
tp542
a(F37.7774091
F-122.2105871
tp543
a(F37.7057483
F-122.4510291
tp544
a(F37.6942263
F-122.455201
tp545
a(F37.6299758
F-122.4136107
tp546
a(F37.7681762
F-122.4407202
tp547
a(F37.786667
F-122.2749106
tp548
a(F37.6640823
F-122.4565161
tp549
a(F37.882968
F-122.2793332
tp550
a(F37.780734
F-122.2364632
tp551
a(F37.7253721
F-122.1470704
tp552
a(F37.7225884
F-122.1458563
tp553
a(F37.8069588
F-122.2570208
tp554
a(F37.8818247
F-122.2711757
tp555
a(F37.7219047
F-122.1728591
tp556
a(F37.7227543
F-122.1726254
tp557
a(F37.8672714
F-122.2914633
tp558
a(F37.8678425
F-122.2916566
tp559
a(F37.7048788
F-122.4512376
tp560
a(F37.7028918
F-122.4520173
tp561
a(F37.6504877
F-122.4140988
tp562
a(F37.8621847
F-122.2811898
tp563
a(F37.8623252
F-122.2800773
tp564
a(F37.7359567
F-122.4518103
tp565
a(F37.7381489
F-122.4072365
tp566
a(F37.857968
F-122.2571532
tp567
a(F37.6326834
F-122.4086113
tp568
a(F37.6865901
F-122.4784773
tp569
a(F37.7065489
F-122.4830002
tp570
a(F37.653879
F-122.44509
tp571
a(F37.6543172
F-122.4425409
tp572
a(F37.764378
F-122.2313913
tp573
a(F37.7228876
F-122.1649359
tp574
a(F37.6500056
F-122.4119352
tp575
a(F37.8020932
F-122.4314412
tp576
a(F37.6335857
F-122.419569
tp577
a(F37.8963731
F-122.1252784
tp578
a(F37.6419544
F-122.4246812
tp579
a(F37.7058436
F-122.4829116
tp580
a(F37.7303354
F-122.4559618
tp581
a(F37.7293516
F-122.4548263
tp582
a(F37.7298359
F-122.4599151
tp583
a(F37.7305735
F-122.4571887
tp584
a(F37.7299907
F-122.4549566
tp585
a(F37.6687312
F-122.4546117
tp586
a(F37.6675627
F-122.4577445
tp587
a(F37.6815693
F-122.4753951
tp588
a(F37.7834203
F-122.2756393
tp589
a(F37.8859314
F-122.1934631
tp590
a(F37.7499732
F-122.3923574
tp591
a(F37.9120936
F-122.3014673
tp592
a(F37.69089
F-122.4540722
tp593
a(F37.690684
F-122.4536883
tp594
a(F37.6735138
F-122.4582203
tp595
a(F37.7337439
F-122.4572575
tp596
a(F37.6654394
F-122.434427
tp597
a(F37.7329774
F-122.4575383
tp598
a(F37.6937063
F-122.4745178
tp599
a(F37.6315381
F-122.4154393
tp600
a(F37.6563453
F-122.4511962
tp601
a(F37.8711014
F-122.2542894
tp602
a(F37.8711549
F-122.2542755
tp603
a(F37.5988216
F-122.3893886
tp604
a(F37.751041
F-122.4383873
tp605
a(F37.7034731
F-122.4524392
tp606
a(F37.8042664
F-122.2513349
tp607
a(F37.813912
F-122.2513204
tp608
a(F37.8016148
F-122.2510431
tp609
a(F37.6552915
F-122.4384326
tp610
a(F37.6925314
F-122.4745105
tp611
a(F37.6673131
F-122.4549402
tp612
a(F37.6007032
F-122.3832301
tp613
a(F37.8758052
F-122.2568888
tp614
a(F37.6885949
F-122.4512734
tp615
a(F37.8828019
F-122.2805792
tp616
a(F37.6549795
F-122.4461579
tp617
a(F37.655462
F-122.4482694
tp618
a(F37.6709434
F-122.4365686
tp619
a(F37.6707726
F-122.4360829
tp620
a(F37.6475354
F-122.4196281
tp621
a(F37.6409131
F-122.4064703
tp622
a(F37.6550605
F-122.4416341
tp623
a(F37.7787673
F-122.2380261
tp624
a(F37.6590429
F-122.4522347
tp625
a(F37.6015815
F-122.3830581
tp626
a(F37.6945748
F-122.4591684
tp627
a(F37.6618067
F-122.43193
tp628
a(F37.7853815
F-122.2282315
tp629
a(F37.6700188
F-122.4346745
tp630
a(F37.8540562
F-122.2435847
tp631
a(F37.7696244
F-122.4423052
tp632
a(F37.7694495
F-122.4422542
tp633
a(F37.7839606
F-122.2120127
tp634
a(F37.6830094
F-122.4757642
tp635
a(F37.7429296
F-122.4365592
tp636
a(F37.7443036
F-122.4393386
tp637
a(F37.7422969
F-122.4359593
tp638
a(F37.8806453
F-122.2660138
tp639
a(F37.6940774
F-122.4722379
tp640
a(F37.6790605
F-122.4730395
tp641
a(F37.6946554
F-122.4574488
tp642
a(F37.7506073
F-122.1865518
tp643
a(F37.6637647
F-122.4503631
tp644
a(F37.8675944
F-122.2928915
tp645
a(F37.672901
F-122.4637623
tp646
a(F37.8694549
F-122.292887
tp647
a(F37.6600282
F-122.4511619
tp648
a(F37.6870641
F-122.4513331
tp649
a(F37.6872297
F-122.4512557
tp650
a(F37.6890264
F-122.4526245
tp651
a(F37.5974006
F-122.3881578
tp652
a(F37.8081215
F-122.3126145
tp653
a(F37.8717061
F-122.2965754
tp654
a(F37.6605162
F-122.4320947
tp655
a(F37.660074
F-122.4322637
tp656
a(F37.898318
F-122.305759
tp657
a(F37.8984385
F-122.3053249
tp658
a(F37.8956193
F-122.2978946
tp659
a(F37.6608346
F-122.4502584
tp660
a(F37.6595322
F-122.4517112
tp661
a(F37.6308609
F-122.4094646
tp662
a(F37.6830026
F-122.4766311
tp663
a(F37.707724
F-122.4495467
tp664
a(F37.8698495
F-122.2582707
tp665
a(F37.9279428
F-122.0562688
tp666
a(F37.8587327
F-122.2799681
tp667
a(F37.8638354
F-122.2832638
tp668
a(F37.8666407
F-122.2900367
tp669
a(F37.8669041
F-122.2879876
tp670
a(F37.8621422
F-122.282112
tp671
a(F37.6654401
F-122.454757
tp672
a(F37.6920544
F-122.4540755
tp673
a(F37.6478028
F-122.4177646
tp674
a(F37.69851
F-122.4586435
tp675
a(F37.598426
F-122.3846589
tp676
a(F37.5994538
F-122.3829122
tp677
a(F37.6308509
F-122.4103695
tp678
a(F37.7077104
F-122.4391956
tp679
a(F37.7083356
F-122.4410915
tp680
a(F37.5997025
F-122.3854759
tp681
a(F37.8005312
F-122.2480229
tp682
a(F37.6895474
F-122.4772706
tp683
a(F37.6647753
F-122.4579838
tp684
a(F37.6636565
F-122.4546723
tp685
a(F37.9098017
F-122.2980501
tp686
a(F37.8222542
F-122.2852534
tp687
a(F37.8259336
F-122.2822997
tp688
a(F37.6552095
F-122.4340776
tp689
a(F37.65556
F-122.4334241
tp690
a(F37.8969032
F-122.3000951
tp691
a(F37.9021497
F-122.0696639
tp692
a(F37.7536604
F-122.3998179
tp693
a(F37.8452588
F-122.2699539
tp694
a(F37.8432778
F-122.2673043
tp695
a(F37.6932454
F-122.4745191
tp696
a(F37.6581242
F-122.4320263
tp697
a(F37.8002017
F-122.4328625
tp698
a(F37.8003281
F-122.4326761
tp699
a(F37.6902955
F-122.4759418
tp700
a(F37.6902146
F-122.4759885
tp701
a(F37.8993775
F-122.3087528
tp702
a(F37.899093
F-122.3088815
tp703
a(F37.691354
F-122.4525689
tp704
a(F37.7259237
F-122.1706104
tp705
a(F37.9294544
F-122.0568761
tp706
a(F37.7839462
F-122.2759437
tp707
a(F37.784375
F-122.276019
tp708
a(F37.8208957
F-122.2553579
tp709
a(F37.8062636
F-122.4254884
tp710
a(F37.7826645
F-122.4440865
tp711
a(F37.8058355
F-122.4255636
tp712
a(F37.7828206
F-122.4438119
tp713
a(F37.7286666
F-122.4621961
tp714
a(F37.7280914
F-122.4619468
tp715
a(F37.729214
F-122.4615984
tp716
a(F37.8943363
F-122.2956915
tp717
a(F37.8756378
F-122.2568508
tp718
a(F37.8042505
F-122.4261615
tp719
a(F37.8800041
F-122.2896598
tp720
a(F37.7577542
F-122.3883829
tp721
a(F37.7099279
F-122.4366496
tp722
a(F37.7107577
F-122.4361359
tp723
a(F37.7100236
F-122.4365661
tp724
a(F37.7116295
F-122.4354359
tp725
a(F37.8977982
F-122.2928179
tp726
a(F37.7031226
F-122.1249792
tp727
a(F37.6846598
F-122.4775607
tp728
a(F37.8068808
F-122.2565004
tp729
a(F37.7804278
F-122.2370022
tp730
a(F37.7630775
F-122.2129049
tp731
a(F37.7755784
F-122.2409489
tp732
a(F37.7757268
F-122.2408684
tp733
a(F37.9059029
F-122.3073634
tp734
a(F37.8744753
F-122.1831919
tp735
a(F37.6615496
F-122.4546117
tp736
a(F37.664525
F-122.4326589
tp737
a(F37.6661155
F-122.4584398
tp738
a(F37.6629001
F-122.4538983
tp739
a(F37.6628281
F-122.4544846
tp740
a(F37.9105006
F-122.2996493
tp741
a(F37.9103036
F-122.2992237
tp742
a(F37.7265385
F-122.1703927
tp743
a(F37.8712928
F-122.253969
tp744
a(F37.7395674
F-122.1939352
tp745
a(F37.8197566
F-122.2574562
tp746
a(F37.8822992
F-122.2706925
tp747
a(F37.7309492
F-122.4578683
tp748
a(F37.9056896
F-122.2912923
tp749
a(F37.8545842
F-122.2839317
tp750
a(F37.7510225
F-122.2035606
tp751
a(F37.9036649
F-122.0639796
tp752
a(F37.9029212
F-122.064709
tp753
a(F37.9055241
F-122.0641309
tp754
a(F37.5995909
F-122.3853646
tp755
a(F37.7254441
F-122.1695676
tp756
a(F37.7232717
F-122.1708464
tp757
a(F37.7233803
F-122.1721253
tp758
a(F37.9123773
F-122.3057626
tp759
a(F37.7174601
F-122.1675505
tp760
a(F37.8326851
F-122.2828716
tp761
a(F37.7601967
F-122.1857921
tp762
a(F37.929588
F-122.3172928
tp763
a(F37.9285505
F-122.3140424
tp764
a(F37.8140582
F-122.3095534
tp765
a(F37.9050945
F-122.0637146
tp766
a(F37.9063894
F-122.0643974
tp767
a(F37.9049011
F-122.0637848
tp768
a(F37.90621
F-122.0640948
tp769
a(F37.9061507
F-122.0641272
tp770
a(F37.6634988
F-122.4348841
tp771
a(F37.7307708
F-122.4594974
tp772
a(F37.7639067
F-122.1944441
tp773
a(F37.9068827
F-122.0705396
tp774
a(F37.8110492
F-122.4191102
tp775
a(F37.6332195
F-122.4095062
tp776
a(F37.7567036
F-122.3891166
tp777
a(F37.8652215
F-122.2860948
tp778
a(F37.6008953
F-122.390381
tp779
a(F37.5970892
F-122.3861426
tp780
a(F37.6010056
F-122.3900617
tp781
a(F37.7853887
F-122.2315758
tp782
a(F37.7694399
F-122.4404926
tp783
a(F37.7691982
F-122.4402136
tp784
a(F37.8076029
F-122.2555716
tp785
a(F37.8925529
F-122.12362
tp786
a(F37.7179785
F-122.4732208
tp787
a(F37.8687015
F-122.25622
tp788
a(F37.8227723
F-122.3003211
tp789
a(F37.828728
F-122.2493425
tp790
a(F37.7836861
F-122.2297275
tp791
a(F37.7828265
F-122.2232281
tp792
a(F37.7761932
F-122.2126908
tp793
a(F37.7053398
F-122.1221292
tp794
a(F37.7848449
F-122.2772739
tp795
a(F37.8425941
F-122.2369626
tp796
a(F37.8755055
F-122.2934248
tp797
a(F37.8756216
F-122.2932429
tp798
a(F37.7717656
F-122.2083951
tp799
a(F37.8036025
F-122.3087729
tp800
a(F37.7236037
F-122.1463099
tp801
a(F37.8229518
F-122.2774525
tp802
a(F37.8626098
F-122.2777791
tp803
a(F37.8653745
F-122.2565154
tp804
a(F37.8478572
F-122.2380167
tp805
a(F37.8523745
F-122.2457309
tp806
a(F37.8957902
F-122.297052
tp807
a(F37.8019268
F-122.2517641
tp808
a(F37.8527503
F-122.2445792
tp809
a(F37.7169408
F-122.1692919
tp810
a(F37.6813112
F-122.4746741
tp811
a(F37.7565386
F-122.4401928
tp812
a(F37.6975798
F-122.4801081
tp813
a(F37.848477
F-122.2806087
tp814
a(F37.848585
F-122.2797399
tp815
a(F37.7161817
F-122.1632776
tp816
a(F37.7158933
F-122.1639711
tp817
a(F37.7523665
F-122.2097821
tp818
a(F37.8563535
F-122.2466788
tp819
a(F37.7640654
F-122.2323308
tp820
a(F37.7640851
F-122.2301281
tp821
a(F37.7798229
F-122.2108292
tp822
a(F37.7785605
F-122.2110639
tp823
a(F37.7901297
F-122.2766825
tp824
a(F37.7319992
F-122.1578028
tp825
a(F37.7253263
F-122.1709365
tp826
a(F37.8124097
F-122.3074455
tp827
a(F37.8689193
F-122.2933163
tp828
a(F37.6931333
F-122.1177439
tp829
a(F37.7783866
F-122.2081175
tp830
a(F37.6456393
F-122.4111137
tp831
a(F37.7390095
F-122.1928237
tp832
a(F37.818234
F-122.2806646
tp833
a(F37.8232696
F-122.2788456
tp834
a(F37.9040292
F-122.0637068
tp835
a(F37.7039546
F-122.1299681
tp836
a(F37.7039567
F-122.130092
tp837
a(F37.7857373
F-122.226764
tp838
a(F37.7853148
F-122.2260473
tp839
a(F37.8729447
F-122.2530028
tp840
a(F37.7754583
F-122.2081633
tp841
a(F37.7011645
F-122.1319103
tp842
a(F37.8917384
F-122.1280898
tp843
a(F37.7072334
F-122.4821791
tp844
a(F37.7842711
F-122.2215933
tp845
a(F37.7855421
F-122.2240246
tp846
a(F37.7852506
F-122.2231838
tp847
a(F37.7636357
F-122.1964241
tp848
a(F37.8599162
F-122.2545707
tp849
a(F37.7326101
F-122.1647895
tp850
a(F37.7487861
F-122.182863
tp851
a(F37.7884489
F-122.2477833
tp852
a(F37.7034927
F-122.1231506
tp853
a(F37.7643407
F-122.2376079
tp854
a(F37.803029
F-122.2489832
tp855
a(F37.7646207
F-122.2015658
tp856
a(F37.7635694
F-122.2004036
tp857
a(F37.7630599
F-122.1998187
tp858
a(F37.7625419
F-122.1992501
tp859
a(F37.9194243
F-122.31244
tp860
a(F37.8259546
F-122.2492048
tp861
a(F37.8361415
F-122.2488876
tp862
a(F37.8663146
F-122.2563671
tp863
a(F37.7837396
F-122.2227598
tp864
a(F37.8102482
F-122.3141105
tp865
a(F37.784991
F-122.2374946
tp866
a(F37.7848959
F-122.2362392
tp867
a(F37.7927317
F-122.2487761
tp868
a(F37.851114
F-122.2832491
tp869
a(F37.8516572
F-122.2848584
tp870
a(F37.7941323
F-122.2486904
tp871
a(F37.784611
F-122.214737
tp872
a(F37.7632222
F-122.2166243
tp873
a(F37.7531461
F-122.2086017
tp874
a(F37.8542726
F-122.2839969
tp875
a(F37.8543257
F-122.2839281
tp876
a(F37.8554567
F-122.2830088
tp877
a(F37.8546394
F-122.283651
tp878
a(F37.8546384
F-122.2837437
tp879
a(F37.8545844
F-122.283806
tp880
a(F37.7844077
F-122.2396947
tp881
a(F37.7847855
F-122.2393377
tp882
a(F37.8082817
F-122.3201159
tp883
a(F37.7532521
F-122.1816642
tp884
a(F37.7157504
F-122.1616867
tp885
a(F37.7148568
F-122.1611034
tp886
a(F37.840431
F-122.2719132
tp887
a(F37.8401426
F-122.2740927
tp888
a(F37.7837391
F-122.237579
tp889
a(F37.7517336
F-122.1827282
tp890
a(F37.8822716
F-122.2848677
tp891
a(F37.8637529
F-122.2832526
tp892
a(F37.6918936
F-122.1189335
tp893
a(F37.7680449
F-122.2371144
tp894
a(F37.7696924
F-122.2357518
tp895
a(F37.8076999
F-122.2551404
tp896
a(F37.8303752
F-122.2832851
tp897
a(F37.7313136
F-122.1567214
tp898
a(F37.7095081
F-122.4712479
tp899
a(F37.7257045
F-122.1496778
tp900
a(F37.896257
F-122.3008719
tp901
a(F37.8968016
F-122.3006067
tp902
a(F37.6942643
F-122.1238855
tp903
a(F37.8475808
F-122.2777342
tp904
a(F37.8557979
F-122.2436353
tp905
a(F37.7336645
F-122.1642555
tp906
a(F37.7150745
F-122.155601
tp907
a(F37.70968
F-122.450095
tp908
a(F37.7206224
F-122.1499568
tp909
a(F37.6927243
F-122.1290976
tp910
a(F37.8729902
F-122.2958054
tp911
a(F37.8686969
F-122.2944268
tp912
a(F37.8747703
F-122.1741499
tp913
a(F37.8719599
F-122.2529804
tp914
a(F37.8289564
F-122.2490414
tp915
a(F37.8577156
F-122.2506957
tp916
a(F37.7172445
F-122.1684047
tp917
a(F37.7615833
F-122.1818905
tp918
a(F37.7394368
F-122.1966529
tp919
a(F37.6568986
F-122.4315908
tp920
a(F37.7643198
F-122.2275618
tp921
a(F37.7648754
F-122.2269395
tp922
a(F37.8913182
F-122.1237235
tp923
a(F37.8916258
F-122.117615
tp924
a(F37.892259
F-122.1166892
tp925
a(F37.8767428
F-122.2927217
tp926
a(F37.7326994
F-122.1618346
tp927
a(F37.744853
F-122.1934594
tp928
a(F37.7996983
F-122.2483029
tp929
a(F37.8222596
F-122.2536695
tp930
a(F37.8220108
F-122.2769023
tp931
a(F37.8788561
F-122.2590487
tp932
a(F37.8671966
F-122.2565495
tp933
a(F37.7688717
F-122.2079376
tp934
a(F37.7684646
F-122.2070449
tp935
a(F37.764685
F-122.184042
tp936
a(F37.7658372
F-122.2101799
tp937
a(F37.858846
F-122.2569413
tp938
a(F37.8809038
F-122.2877712
tp939
a(F37.8424011
F-122.2665951
tp940
a(F37.8003142
F-122.432786
tp941
a(F37.7036484
F-122.1197359
tp942
a(F37.7025399
F-122.1181619
tp943
a(F37.8126119
F-122.2533586
tp944
a(F37.7170842
F-122.165649
tp945
a(F37.798385
F-122.2484835
tp946
a(F37.7969228
F-122.2485034
tp947
a(F37.7823793
F-122.2248409
tp948
a(F37.7782456
F-122.2400771
tp949
a(F37.694721
F-122.125726
tp950
a(F37.6940085
F-122.1256922
tp951
a(F37.6933424
F-122.1257159
tp952
a(F37.7459403
F-122.3990353
tp953
a(F37.8847117
F-122.2809242
tp954
a(F37.8847447
F-122.2813527
tp955
a(F37.9066172
F-122.0652529
tp956
a(F37.9037635
F-122.2902579
tp957
a(F37.8998929
F-122.2925981
tp958
a(F37.8977127
F-122.2926056
tp959
a(F37.8860468
F-122.1778523
tp960
a(F37.8907685
F-122.127584
tp961
a(F37.8633707
F-122.2576378
tp962
a(F37.7596648
F-122.1826761
tp963
a(F37.7845933
F-122.2202754
tp964
a(F37.5998853
F-122.3848442
tp965
a(F37.7846254
F-122.2300183
tp966
a(F37.8550184
F-122.243556
tp967
a(F37.7658319
F-122.2114297
tp968
a(F37.7648162
F-122.21022
tp969
a(F37.7732113
F-122.2087197
tp970
a(F37.7641782
F-122.1857103
tp971
a(F37.8681004
F-122.2567329
tp972
a(F37.822025
F-122.2539135
tp973
a(F37.8186289
F-122.2574945
tp974
a(F37.8316328
F-122.2836879
tp975
a(F37.7137681
F-122.150792
tp976
a(F37.6978908
F-122.1351161
tp977
a(F37.727641
F-122.1684802
tp978
a(F37.7397297
F-122.4505006
tp979
a(F37.7405619
F-122.4476038
tp980
a(F37.7382993
F-122.4514087
tp981
a(F37.8254984
F-122.2803639
tp982
a(F37.8257453
F-122.2814656
tp983
a(F37.8435701
F-122.2363887
tp984
a(F37.7757038
F-122.2086486
tp985
a(F37.848657
F-122.2363693
tp986
a(F37.8751404
F-122.2941391
tp987
a(F37.8751468
F-122.2940156
tp988
a(F37.6954066
F-122.1258385
tp989
a(F37.7720105
F-122.2082074
tp990
a(F37.8496124
F-122.2819534
tp991
a(F37.7145038
F-122.432762
tp992
a(F37.6400802
F-122.42338
tp993
a(F37.7019676
F-122.1315219
tp994
a(F37.8813
F-122.2752285
tp995
a(F37.8821826
F-122.2683935
tp996
a(F37.8823293
F-122.2672863
tp997
a(F37.8581635
F-122.2556781
tp998
a(F37.820539
F-122.2833523
tp999
a(F37.8240782
F-122.2518658
tp1000
a(F37.7899338
F-122.2489939
tp1001
a(F37.7245565
F-122.171529
tp1002
a(F37.762765
F-122.1892562
tp1003
a(F37.6654948
F-122.4324644
tp1004
a(F37.6994846
F-122.1166997
tp1005
a(F37.7706344
F-122.2401093
tp1006
a(F37.7913449
F-122.2488689
tp1007
a(F37.7845774
F-122.2378914
tp1008
a(F37.7561235
F-122.1806201
tp1009
a(F37.7322246
F-122.1614855
tp1010
a(F37.7199067
F-122.1489852
tp1011
a(F37.7038154
F-122.1265195
tp1012
a(F37.6972636
F-122.1171758
tp1013
a(F37.7239191
F-122.148869
tp1014
a(F37.8699157
F-122.2542593
tp1015
a(F37.6734027
F-122.4393675
tp1016
a(F37.7638322
F-122.2257513
tp1017
a(F37.8386769
F-122.2754354
tp1018
a(F37.8377597
F-122.2757867
tp1019
a(F37.8212938
F-122.278444
tp1020
a(F37.8577834
F-122.249753
tp1021
a(F37.8780258
F-122.2588692
tp1022
a(F37.7208695
F-122.173232
tp1023
a(F37.8489108
F-122.2376432
tp1024
a(F37.7681255
F-122.2395391
tp1025
a(F37.8077253
F-122.2539522
tp1026
a(F37.7842665
F-122.239813
tp1027
a(F37.7635226
F-122.2348762
tp1028
a(F37.7621687
F-122.1859423
tp1029
a(F37.7689482
F-122.2388417
tp1030
a(F37.8225133
F-122.2838018
tp1031
a(F37.7508163
F-122.3934353
tp1032
a(F37.6991917
F-122.1366074
tp1033
a(F37.8356093
F-122.2481454
tp1034
a(F37.8205487
F-122.2543239
tp1035
a(F37.8827657
F-122.2696549
tp1036
a(F37.716505
F-122.1522413
tp1037
a(F37.7305804
F-122.1559832
tp1038
a(F37.7656983
F-122.2128808
tp1039
a(F37.7636691
F-122.2104158
tp1040
a(F37.8136366
F-122.3096271
tp1041
a(F37.8113101
F-122.3120638
tp1042
a(F37.7333158
F-122.1666397
tp1043
a(F37.9050708
F-122.0646339
tp1044
a(F37.8614093
F-122.2589236
tp1045
a(F37.7662939
F-122.2276691
tp1046
a(F37.7857658
F-122.2333117
tp1047
a(F37.7216529
F-122.4689877
tp1048
a(F37.8970767
F-122.2992565
tp1049
a(F37.857702
F-122.2809252
tp1050
a(F37.685787
F-122.4769326
tp1051
a(F37.8507441
F-122.2413643
tp1052
a(F37.7645443
F-122.1964056
tp1053
a(F37.7004271
F-122.1189637
tp1054
a(F37.7011909
F-122.1181427
tp1055
a(F37.8576953
F-122.2816462
tp1056
a(F37.9073328
F-122.0661683
tp1057
a(F37.7082411
F-122.4385996
tp1058
a(F37.7088554
F-122.4424155
tp1059
a(F37.84612
F-122.2730702
tp1060
a(F37.8207692
F-122.2586889
tp1061
a(F37.7883364
F-122.2478721
tp1062
a(F37.765095
F-122.2086041
tp1063
a(F37.794807
F-122.438402
tp1064
a(F37.7175959
F-122.166718
tp1065
a(F37.6349484
F-122.4255407
tp1066
a(F37.6923518
F-122.1300921
tp1067
a(F37.8451583
F-122.2706938
tp1068
a(F37.7176789
F-122.1516418
tp1069
a(F37.7148821
F-122.1583967
tp1070
a(F37.7816871
F-122.2258254
tp1071
a(F37.7196341
F-122.4723654
tp1072
a(F37.8086854
F-122.2527541
tp1073
a(F37.8072252
F-122.2563233
tp1074
a(F37.6338983
F-122.4147408
tp1075
a(F37.7184734
F-122.1721212
tp1076
a(F37.7849346
F-122.215564
tp1077
a(F37.7625953
F-122.215275
tp1078
a(F37.7653991
F-122.238473
tp1079
a(F37.763143
F-122.2341305
tp1080
a(F37.7857003
F-122.2299019
tp1081
a(F37.7836982
F-122.2158712
tp1082
a(F37.7838164
F-122.2273959
tp1083
a(F37.7850243
F-122.228571
tp1084
a(F37.8974149
F-122.3022245
tp1085
a(F37.7053058
F-122.1211679
tp1086
a(F37.7277992
F-122.1493503
tp1087
a(F37.8665574
F-122.290025
tp1088
a(F37.8131226
F-122.252452
tp1089
a(F37.8036525
F-122.2511492
tp1090
a(F37.6974557
F-122.1320423
tp1091
a(F37.6010205
F-122.3831842
tp1092
a(F37.7282696
F-122.1518447
tp1093
a(F37.8234724
F-122.2868335
tp1094
a(F37.7889926
F-122.2787954
tp1095
a(F37.7683679
F-122.4402753
tp1096
a(F37.8515401
F-122.2419306
tp1097
a(F37.8560577
F-122.2482249
tp1098
a(F37.7630099
F-122.1853938
tp1099
a(F37.8170929
F-122.2563167
tp1100
a(F37.8176396
F-122.2555389
tp1101
a(F37.789663
F-122.442476
tp1102
a(F37.8200251
F-122.2811777
tp1103
a(F37.8235151
F-122.2799246
tp1104
a(F37.8678144
F-122.2917966
tp1105
a(F37.7615275
F-122.211655
tp1106
a(F37.8232521
F-122.2879171
tp1107
a(F37.7495247
F-122.1830723
tp1108
a(F37.8668222
F-122.2879703
tp1109
a(F37.7841641
F-122.2130684
tp1110
a(F37.7714458
F-122.239397
tp1111
a(F37.8476628
F-122.2795615
tp1112
a(F37.8481607
F-122.2758226
tp1113
a(F37.7640319
F-122.2358631
tp1114
a(F37.761921
F-122.2054219
tp1115
a(F37.8223135
F-122.2876194
tp1116
a(F37.8220684
F-122.2875398
tp1117
a(F37.8217166
F-122.2874271
tp1118
a(F37.7607314
F-122.2031721
tp1119
a(F37.7502533
F-122.1836718
tp1120
a(F37.8232705
F-122.2886007
tp1121
a(F37.7851992
F-122.2185252
tp1122
a(F37.755898
F-122.39783
tp1123
a(F37.7330989
F-122.1578715
tp1124
a(F37.7050404
F-122.1238347
tp1125
a(F37.7411793
F-122.4495429
tp1126
a(F37.8797948
F-122.2727663
tp1127
a(F37.8947128
F-122.2938251
tp1128
a(F37.6021487
F-122.3853691
tp1129
a(F37.8058863
F-122.4253354
tp1130
a(F37.8082234
F-122.3197502
tp1131
a(F37.7018317
F-122.13153
tp1132
a(F37.7593742
F-122.1822364
tp1133
a(F37.6930142
F-122.1187665
tp1134
a(F37.7660704
F-122.2084158
tp1135
a(F37.7854163
F-122.4461089
tp1136
a(F37.7611131
F-122.203899
tp1137
a(F37.9193137
F-122.3181536
tp1138
a(F37.6583779
F-122.4316289
tp1139
a(F37.6593504
F-122.4317274
tp1140
a(F37.8073995
F-122.2569092
tp1141
a(F37.8073182
F-122.2570466
tp1142
a(F37.7647468
F-122.2200148
tp1143
a(F37.8796431
F-122.2738922
tp1144
a(F37.7427681
F-122.184019
tp1145
a(F37.879456
F-122.2610615
tp1146
a(F37.7085993
F-122.4448464
tp1147
a(F37.7485768
F-122.4415932
tp1148
a(F37.883212
F-122.2857323
tp1149
a(F37.7553491
F-122.183767
tp1150
a(F37.8819939
F-122.2764583
tp1151
a(F37.741491
F-122.1861471
tp1152
a(F37.7503852
F-122.1855703
tp1153
a(F37.7186838
F-122.1713144
tp1154
a(F37.8752604
F-122.2936978
tp1155
a(F37.7144684
F-122.4779501
tp1156
a(F37.8104099
F-122.2514502
tp1157
a(F37.7776746
F-122.4468645
tp1158
a(F37.7113576
F-122.4606004
tp1159
a(F37.8065038
F-122.2563599
tp1160
a(F37.8064413
F-122.2563827
tp1161
a(F37.8044866
F-122.2518264
tp1162
a(F37.9304491
F-122.3224403
tp1163
a(F37.8261056
F-122.283068
tp1164
a(F37.886501
F-122.181073
tp1165
a(F37.8859209
F-122.1822122
tp1166
a(F37.8866199
F-122.1835184
tp1167
a(F37.7202508
F-122.1736721
tp1168
a(F37.691431
F-122.1191038
tp1169
a(F37.7636138
F-122.2295279
tp1170
a(F37.8985509
F-122.3060716
tp1171
a(F37.8215088
F-122.276625
tp1172
a(F37.6656941
F-122.4586045
tp1173
a(F37.6730285
F-122.4540673
tp1174
a(F37.8406764
F-122.2399351
tp1175
a(F37.840921
F-122.2386237
tp1176
a(F37.6654674
F-122.4586423
tp1177
a(F37.6657009
F-122.4588649
tp1178
a(F37.6730513
F-122.4540386
tp1179
a(F37.6655587
F-122.4588059
tp1180
a(F37.6001531
F-122.3901807
tp1181
a(F37.6018967
F-122.385273
tp1182
a(F37.7686724
F-122.4433487
tp1183
a(F37.7703465
F-122.443104
tp1184
a(F37.8068251
F-122.4256013
tp1185
a(F37.7034859
F-122.1232793
tp1186
a(F37.8663194
F-122.2868047
tp1187
a(F37.7983852
F-122.2853272
tp1188
a(F37.6307811
F-122.41115
tp1189
a(F37.8999578
F-122.1310191
tp1190
a(F37.6946563
F-122.456608
tp1191
a(F37.7562669
F-122.3900964
tp1192
a(F37.8850122
F-122.2809716
tp1193
a(F37.8817446
F-122.2718369
tp1194
a(F37.8694337
F-122.293013
tp1195
a(F37.8616397
F-122.2785313
tp1196
a(F37.7017413
F-122.4844444
tp1197
a(F37.7020207
F-122.4842372
tp1198
a(F37.8780949
F-122.1919209
tp1199
a(F37.7835569
F-122.2763293
tp1200
a(F37.8699551
F-122.2555898
tp1201
a(F37.8459311
F-122.2726121
tp1202
a(F37.8460228
F-122.272887
tp1203
a(F37.8424585
F-122.2661453
tp1204
a(F37.841165
F-122.2674368
tp1205
a(F37.84193
F-122.2654846
tp1206
a(F37.8434215
F-122.2661891
tp1207
a(F37.8434993
F-122.2655944
tp1208
a(F37.8408316
F-122.2680017
tp1209
a(F37.724269
F-122.4652805
tp1210
a(F37.6546646
F-122.4368777
tp1211
a(F37.6556206
F-122.4354865
tp1212
a(F37.7178417
F-122.4733221
tp1213
a(F37.656135
F-122.4362954
tp1214
a(F37.7834337
F-122.2765063
tp1215
a(F37.6593875
F-122.4317911
tp1216
a(F37.6596002
F-122.4322495
tp1217
a(F37.7630205
F-122.1895365
tp1218
a(F37.9085463
F-122.2956577
tp1219
a(F37.90359
F-122.2905312
tp1220
a(F37.908703
F-122.2943855
tp1221
a(F37.7089047
F-122.4414875
tp1222
a(F37.6000582
F-122.389409
tp1223
a(F37.5997612
F-122.3834765
tp1224
a(F37.7729049
F-122.4455322
tp1225
a(F37.717918
F-122.4734894
tp1226
a(F37.6019949
F-122.385363
tp1227
a(F37.8355425
F-122.2812344
tp1228
a(F37.7651126
F-122.19953
tp1229
a(F37.7637043
F-122.1902392
tp1230
a(F37.9035239
F-122.064072
tp1231
a(F37.798696
F-122.43413
tp1232
a(F37.8475605
F-122.2392518
tp1233
a(F37.753947
F-122.3980629
tp1234
a(F37.7527273
F-122.3964815
tp1235
a(F37.7830077
F-122.2383862
tp1236
a(F37.673134
F-122.4375268
tp1237
a(F37.6628988
F-122.4324377
tp1238
a(F37.6688393
F-122.4348485
tp1239
a(F37.8445154
F-122.2375578
tp1240
a(F37.6952637
F-122.4602446
tp1241
a(F37.6910974
F-122.4758731
tp1242
a(F37.6864297
F-122.478199
tp1243
a(F37.8112995
F-122.2516471
tp1244
a(F37.8577069
F-122.2531157
tp1245
a(F37.7363481
F-122.451832
tp1246
a(F37.9222483
F-122.3109454
tp1247
a(F37.7643033
F-122.2304901
tp1248
a(F37.8583952
F-122.2538635
tp1249
a(F37.59715
F-122.3864533
tp1250
a(F37.8202751
F-122.282256
tp1251
a(F37.8179974
F-122.2796325
tp1252
a(F37.8270293
F-122.2821802
tp1253
a(F37.5999912
F-122.3891237
tp1254
a(F37.8276879
F-122.2843114
tp1255
a(F37.6009065
F-122.3901962
tp1256
a(F37.8330389
F-122.2469303
tp1257
a(F37.8697576
F-122.2959504
tp1258
a(F37.6026127
F-122.3842862
tp1259
a(F37.7955179
F-122.2485908
tp1260
a(F37.72476
F-122.426093
tp1261
a(F37.895193
F-122.1166707
tp1262
a(F37.89546
F-122.1160816
tp1263
a(F37.762441
F-122.444719
tp1264
a(F37.7072288
F-122.4411344
tp1265
a(F37.73165
F-122.1696582
tp1266
a(F37.7317016
F-122.1700685
tp1267
a(F37.7316974
F-122.1697579
tp1268
a(F37.8211177
F-122.2577729
tp1269
a(F37.8522316
F-122.2455981
tp1270
a(F37.8489079
F-122.279819
tp1271
a(F37.8269397
F-122.2498366
tp1272
a(F37.8707729
F-122.2974586
tp1273
a(F37.8820656
F-122.2707685
tp1274
a(F37.7461709
F-122.394069
tp1275
a(F37.753141
F-122.392707
tp1276
a(F37.7166165
F-122.4757723
tp1277
a(F37.7167162
F-122.4756757
tp1278
a(F37.8068505
F-122.4254233
tp1279
a(F37.8515113
F-122.2427278
tp1280
a(F37.8490529
F-122.2388347
tp1281
a(F37.9399718
F-122.3514905
tp1282
a(F37.7639753
F-122.1927234
tp1283
a(F37.7640818
F-122.1911017
tp1284
a(F37.7577405
F-122.1831323
tp1285
a(F37.7612508
F-122.1858374
tp1286
a(F37.6343089
F-122.4219288
tp1287
a(F37.771547
F-122.2071915
tp1288
a(F37.6965122
F-122.4637002
tp1289
a(F37.8753365
F-122.2567122
tp1290
a(F37.875556
F-122.2565276
tp1291
a(F37.7721548
F-122.446305
tp1292
a(F37.8243051
F-122.2905815
tp1293
a(F37.891351
F-122.1242915
tp1294
a(F37.7764649
F-122.2087277
tp1295
a(F37.871779
F-122.2535125
tp1296
a(F37.8916854
F-122.1268639
tp1297
a(F37.8510293
F-122.2399844
tp1298
a(F37.6721616
F-122.4538385
tp1299
a(F37.8219655
F-122.27702
tp1300
a(F37.6344257
F-122.4224729
tp1301
a(F37.6558121
F-122.4314424
tp1302
a(F37.6339408
F-122.4206699
tp1303
a(F37.6343658
F-122.4224349
tp1304
a(F37.8712704
F-122.175896
tp1305
a(F37.7780317
F-122.2111286
tp1306
a(F37.8742748
F-122.1745254
tp1307
a(F37.7764374
F-122.2119097
tp1308
a(F37.6547403
F-122.4382087
tp1309
a(F37.7263485
F-122.1509349
tp1310
a(F37.6861946
F-122.4772639
tp1311
a(F37.930769
F-122.3219485
tp1312
a(F37.9284296
F-122.3149069
tp1313
a(F37.7607558
F-122.201776
tp1314
a(F37.785105
F-122.2752026
tp1315
a(F37.8699635
F-122.2948996
tp1316
a(F37.869296
F-122.2545838
tp1317
a(F37.7916334
F-122.4411715
tp1318
a(F37.720882
F-122.426845
tp1319
a(F37.8303125
F-122.2474267
tp1320
a(F37.8226622
F-122.3004365
tp1321
a(F37.761575
F-122.444544
tp1322
a(F37.9073729
F-122.0648674
tp1323
a(F37.9061882
F-122.06467
tp1324
a(F37.8804384
F-122.2751265
tp1325
a(F37.8455118
F-122.2366909
tp1326
a(F37.874566
F-122.255469
tp1327
a(F37.6451882
F-122.4231637
tp1328
a(F37.6985359
F-122.135859
tp1329
a(F37.7702577
F-122.4429701
tp1330
a(F37.9285828
F-122.3214392
tp1331
a(F37.7629304
F-122.2205187
tp1332
a(F37.717762
F-122.429171
tp1333
a(F37.727112
F-122.420867
tp1334
a(F37.9102069
F-122.2971587
tp1335
a(F37.8406026
F-122.2697455
tp1336
a(F37.6351659
F-122.424794
tp1337
a(F37.8275803
F-122.2494871
tp1338
a(F37.8230092
F-122.2532529
tp1339
a(F37.7277376
F-122.4636008
tp1340
a(F37.8631894
F-122.2789877
tp1341
a(F37.7002924
F-122.4823193
tp1342
a(F37.7014551
F-122.4835767
tp1343
a(F37.7005078
F-122.4821824
tp1344
a(F37.6333195
F-122.4192083
tp1345
a(F37.8012031
F-122.249436
tp1346
a(F37.736894
F-122.410377
tp1347
a(F37.8013738
F-122.4318634
tp1348
a(F37.9029207
F-122.0648174
tp1349
a(F37.9030537
F-122.0650066
tp1350
a(F37.903607
F-122.0657575
tp1351
a(F37.8750962
F-122.2947207
tp1352
a(F37.747022
F-122.3988905
tp1353
a(F37.6904639
F-122.4758823
tp1354
a(F37.8983531
F-122.2939127
tp1355
a(F37.6878755
F-122.4781459
tp1356
a(F37.776049
F-122.2407503
tp1357
a(F37.7542528
F-122.1814982
tp1358
a(F37.8989237
F-122.3088901
tp1359
a(F37.7874371
F-122.249092
tp1360
a(F37.8451245
F-122.2709342
tp1361
a(F37.8406824
F-122.2700058
tp1362
a(F37.861263
F-122.2599868
tp1363
a(F37.795949
F-122.43695
tp1364
a(F37.9076917
F-122.0667859
tp1365
a(F37.9073431
F-122.0662238
tp1366
a(F37.8211062
F-122.2538317
tp1367
a(F37.679886
F-122.4513033
tp1368
a(F37.8320888
F-122.249785
tp1369
a(F37.806253
F-122.4256118
tp1370
a(F37.7784884
F-122.2110827
tp1371
a(F37.7660681
F-122.2111385
tp1372
a(F37.6026886
F-122.3840639
tp1373
a(F37.8337518
F-122.283218
tp1374
a(F37.745974
F-122.397043
tp1375
a(F37.8348402
F-122.2811416
tp1376
a(F37.8347427
F-122.2815535
tp1377
a(F37.834357
F-122.2813283
tp1378
a(F37.8632669
F-122.2586719
tp1379
a(F37.7113807
F-122.459717
tp1380
a(F37.82976
F-122.2828059
tp1381
a(F37.8298004
F-122.2826048
tp1382
a(F37.6918151
F-122.4755666
tp1383
a(F37.6432919
F-122.4237602
tp1384
a(F37.6424335
F-122.4236006
tp1385
a(F37.6434248
F-122.4235577
tp1386
a(F37.6425236
F-122.4234146
tp1387
a(F37.642353
F-122.4237666
tp1388
a(F37.6421544
F-122.4238604
tp1389
a(F37.5999563
F-122.3835004
tp1390
a(F37.6418865
F-122.4244275
tp1391
a(F37.6416087
F-122.4237117
tp1392
a(F37.6436412
F-122.4235066
tp1393
a(F37.8577359
F-122.25703
tp1394
a(F37.8436854
F-122.2679632
tp1395
a(F37.6013605
F-122.3831413
tp1396
a(F37.829602
F-122.2830277
tp1397
a(F37.7281162
F-122.1688492
tp1398
a(F37.8955525
F-122.2946576
tp1399
a(F37.6973562
F-122.1345049
tp1400
a(F37.8326322
F-122.2490503
tp1401
a(F37.8987544
F-122.3078687
tp1402
a(F37.8703444
F-122.2541643
tp1403
a(F37.6901377
F-122.4528752
tp1404
a(F37.8572073
F-122.282453
tp1405
a(F37.7103987
F-122.4483288
tp1406
a(F37.7070989
F-122.4492564
tp1407
a(F37.709387
F-122.450964
tp1408
a(F37.8540727
F-122.2843449
tp1409
a(F37.772857
F-122.4458941
tp1410
a(F37.6306916
F-122.411631
tp1411
a(F37.873584
F-122.2548712
tp1412
a(F37.7360267
F-122.410771
tp1413
a(F37.9060526
F-122.0640857
tp1414
a(F37.9058805
F-122.0641398
tp1415
a(F37.8997506
F-122.29278
tp1416
a(F37.7729842
F-122.4459209
tp1417
a(F37.8632579
F-122.2587536
tp1418
a(F37.8613984
F-122.2590098
tp1419
a(F37.8623303
F-122.2588796
tp1420
a(F37.7300879
F-122.4558407
tp1421
a(F37.7609057
F-122.2006024
tp1422
a(F37.9308214
F-122.3222259
tp1423
a(F37.9095786
F-122.3073367
tp1424
a(F37.7625005
F-122.4447521
tp1425
a(F37.752032
F-122.2094078
tp1426
a(F37.7542044
F-122.2118563
tp1427
a(F37.7632159
F-122.2208599
tp1428
a(F37.7548547
F-122.2124577
tp1429
a(F37.9203173
F-122.3106202
tp1430
a(F37.6917635
F-122.1299965
tp1431
a(F37.7138848
F-122.4353606
tp1432
a(F37.7135162
F-122.4345493
tp1433
a(F37.8731775
F-122.2536953
tp1434
a(F37.7671565
F-122.2389823
tp1435
a(F37.9307106
F-122.3182322
tp1436
a(F37.820998
F-122.2572338
tp1437
a(F37.8069921
F-122.2565325
tp1438
a(F37.6817535
F-122.452253
tp1439
a(F37.8859622
F-122.1930588
tp1440
a(F37.7008386
F-122.4835185
tp1441
a(F37.7002337
F-122.4825226
tp1442
a(F37.6471922
F-122.4230828
tp1443
a(F37.7235393
F-122.4281126
tp1444
a(F37.7236216
F-122.4281386
tp1445
a(F37.7236282
F-122.4280454
tp1446
a(F37.8347183
F-122.2804197
tp1447
a(F37.8771956
F-122.2587079
tp1448
a(F37.6344987
F-122.4228956
tp1449
a(F37.6550483
F-122.434359
tp1450
a(F37.8555847
F-122.2830338
tp1451
a(F37.9291
F-122.3161934
tp1452
a(F37.8774551
F-122.2900163
tp1453
a(F37.9049583
F-122.0637561
tp1454
a(F37.9047716
F-122.0638569
tp1455
a(F37.6302767
F-122.4128221
tp1456
a(F37.8999882
F-122.1242538
tp1457
a.