(lp0
L200708L
aL190477L
aL194583L
aL481305L
aL352312L
aL469060L
aL133199L
aL127103L
aL487556L
aL114822L
aL108742L
aL436435L
aL207080L
aL215276L
aL198893L
aL116987L
aL452869L
aL487686L
aL164126L
aL164130L
aL164131L
aL112932L
aL164133L
aL164139L
aL235570L
aL164145L
aL164149L
aL164153L
aL164155L
aL452937L
aL129366L
aL129367L
aL129368L
aL123242L
aL127347L
aL115065L
aL115131L
aL115134L
aL125381L
aL248276L
aL479704L
aL123355L
aL453089L
aL311779L
aL455144L
aL127472L
aL123414L
aL440875L
aL123447L
aL128436L
aL123452L
aL264782L
aL440917L
aL129640L
aL318072L
aL111236L
aL119457L
aL481977L
aL449217L
aL469712L
aL107230L
aL107232L
aL479979L
aL129783L
aL193273L
aL195370L
aL230158L
aL437034L
aL140765L
aL129842L
aL293712L
aL197460L
aL492378L
aL105310L
aL293735L
aL195439L
aL170879L
aL121756L
aL113569L
aL113571L
aL234414L
aL185308L
aL123893L
aL470006L
aL244729L
aL203775L
aL115718L
aL115727L
aL115728L
aL121924L
aL115783L
aL390220L
aL208040L
aL208041L
aL134326L
aL257208L
aL124092L
aL120016L
aL230618L
aL220411L
aL447745L
aL109830L
aL115993L
aL195926L
aL148828L
aL458135L
aL218525L
aL122274L
aL120243L
aL302516L
aL110021L
aL333266L
aL140759L
aL140760L
aL181726L
aL106066L
aL226799L
aL126459L
aL114219L
aL491056L
aL464433L
aL218696L
aL122441L
aL106067L
aL269910L
aL456282L
aL181867L
aL124524L
aL480879L
aL480880L
aL124533L
aL122491L
aL206461L
aL480901L
aL114335L
aL325281L
aL202424L
aL205090L
aL118494L
aL128740L
aL128747L
aL106236L
aL210688L
aL196360L
aL458507L
aL487185L
aL122674L
aL448821L
aL458565L
aL116555L
aL192358L
aL198503L
aL141179L
aL470923L
aL145299L
aL479136L
aL120750L
aL114613L
aL117069L
aL114653L
aL208881L
a.