(lp0
(F37.773842
F-122.417649
tp1
a(F37.7666729
F-122.4198442
tp2
a(F37.7969082
F-122.4068292
tp3
a(F37.7966456
F-122.4042418
tp4
a(F37.7974375
F-122.3953552
tp5
a(F37.7727129
F-122.4149484
tp6
a(F37.77917
F-122.4181878
tp7
a(F37.7796739
F-122.4178848
tp8
a(F37.7792182
F-122.417806
tp9
a(F37.7793062
F-122.4182153
tp10
a(F37.7794861
F-122.4182516
tp11
a(F37.7716107
F-122.4057931
tp12
a(F37.7969028
F-122.4052959
tp13
a(F37.7744096
F-122.3915831
tp14
a(F37.7980985
F-122.3964589
tp15
a(F37.7713164
F-122.4054235
tp16
a(F37.771631
F-122.4059648
tp17
a(F37.7953273
F-122.3919375
tp18
a(F37.7727398
F-122.4083163
tp19
a(F37.7755021
F-122.4186025
tp20
a(F37.7962461
F-122.3986684
tp21
a(F37.7744434
F-122.4016301
tp22
a(F37.7975723
F-122.3996393
tp23
a(F37.7746722
F-122.387881
tp24
a(F37.7731704
F-122.3893926
tp25
a(F37.7760969
F-122.3897089
tp26
a(F37.7745242
F-122.3915062
tp27
a(F37.7960806
F-122.4062435
tp28
a(F37.7945625
F-122.4111558
tp29
a(F37.7729178
F-122.3898055
tp30
a(F37.7713009
F-122.4085367
tp31
a(F37.7736238
F-122.3994179
tp32
a(F37.7729294
F-122.3895844
tp33
a(F37.7914214
F-122.4141073
tp34
a(F37.795467
F-122.411082
tp35
a(F37.799377
F-122.4024194
tp36
a(F37.7633833
F-122.4204382
tp37
a(F37.788178
F-122.416827
tp38
a(F37.7960534
F-122.4100033
tp39
a(F37.7870355
F-122.4182969
tp40
a(F37.7766944
F-122.4161362
tp41
a(F37.7739688
F-122.4164947
tp42
a(F37.7739012
F-122.4165917
tp43
a(F37.773441
F-122.410446
tp44
a(F37.7728161
F-122.4169304
tp45
a(F37.794527
F-122.411364
tp46
a(F37.778444
F-122.4182296
tp47
a(F37.7802725
F-122.4186003
tp48
a(F37.7830967
F-122.4191755
tp49
a(F37.7858973
F-122.4197509
tp50
a(F37.797807
F-122.3996863
tp51
a(F37.784236
F-122.417707
tp52
a(F37.7988653
F-122.3986989
tp53
a(F37.7985809
F-122.4010527
tp54
a(F37.797628
F-122.4086235
tp55
a(F37.7975752
F-122.4090497
tp56
a(F37.7935259
F-122.4121155
tp57
a(F37.798391
F-122.401013
tp58
a(F37.7962187
F-122.4051506
tp59
a(F37.7733536
F-122.401283
tp60
a(F37.792992
F-122.412739
tp61
a(F37.764977
F-122.420901
tp62
a(F37.766625
F-122.420638
tp63
a(F37.772073
F-122.411897
tp64
a(F37.7865767
F-122.418206
tp65
a(F37.7969462
F-122.4065274
tp66
a(F37.7941212
F-122.4108157
tp67
a(F37.7731704
F-122.4185944
tp68
a(F37.7926346
F-122.4076128
tp69
a(F37.7867558
F-122.4168985
tp70
a(F37.7974565
F-122.3972722
tp71
a(F37.7980002
F-122.3980406
tp72
a(F37.7975911
F-122.3993844
tp73
a(F37.7974035
F-122.3993013
tp74
a(F37.797132
F-122.407688
tp75
a(F37.797962
F-122.3989338
tp76
a(F37.7743922
F-122.3914915
tp77
a(F37.7651079
F-122.4188094
tp78
a(F37.7523
F-122.4184688
tp79
a(F37.7522485
F-122.418381
tp80
a(F37.7936227
F-122.3917593
tp81
a(F37.7975579
F-122.3943178
tp82
a(F37.7715623
F-122.4074212
tp83
a(F37.7743561
F-122.391667
tp84
a(F37.7965221
F-122.3988931
tp85
a(F37.7963399
F-122.399741
tp86
a(F37.7743279
F-122.3922864
tp87
a(F37.7743128
F-122.3919619
tp88
a(F37.7892927
F-122.4157663
tp89
a(F37.7722821
F-122.4106224
tp90
a(F37.7929542
F-122.391284
tp91
a(F37.7735644
F-122.395323
tp92
a(F37.7742355
F-122.3915714
tp93
a(F37.7878826
F-122.4166459
tp94
a(F37.7913071
F-122.4140818
tp95
a(F37.7736238
F-122.3914758
tp96
a(F37.7736851
F-122.3949018
tp97
a(F37.7737141
F-122.3977243
tp98
a(F37.7721757
F-122.4012433
tp99
a(F37.7750391
F-122.3875697
tp100
a(F37.7327525
F-122.4339009
tp101
a(F37.7951098
F-122.391536
tp102
a(F37.7711307
F-122.4008049
tp103
a(F37.7978595
F-122.3966241
tp104
a(F37.7973047
F-122.4036784
tp105
a(F37.7724541
F-122.4163229
tp106
a(F37.7923366
F-122.4142934
tp107
a(F37.7902533
F-122.4155691
tp108
a(F37.781237
F-122.4188004
tp109
a(F37.7733654
F-122.3964022
tp110
a(F37.7742143
F-122.3941528
tp111
a(F37.7752834
F-122.3950633
tp112
a(F37.796596
F-122.3994957
tp113
a(F37.7966193
F-122.399367
tp114
a(F37.7725025
F-122.4151545
tp115
a(F37.7735371
F-122.3972025
tp116
a(F37.7725377
F-122.4100831
tp117
a(F37.7851756
F-122.417916
tp118
a(F37.7856232
F-122.4180011
tp119
a(F37.7723425
F-122.4134392
tp120
a(F37.7526036
F-122.4183971
tp121
a(F37.7523113
F-122.4180398
tp122
a(F37.7957691
F-122.392416
tp123
a(F37.7821696
F-122.4189885
tp124
a(F37.7635179
F-122.4195305
tp125
a(F37.7964975
F-122.4100931
tp126
a(F37.790363
F-122.414705
tp127
a(F37.7983213
F-122.4030859
tp128
a(F37.7701197
F-122.4038074
tp129
a(F37.7960875
F-122.3999113
tp130
a(F37.7766534
F-122.4173857
tp131
a(F37.783778
F-122.417619
tp132
a(F37.793989
F-122.41186
tp133
a(F37.7979978
F-122.3962315
tp134
a(F37.7775101
F-122.418013
tp135
a(F37.7801102
F-122.4183774
tp136
a(F37.780261
F-122.4174782
tp137
a(F37.7790948
F-122.3880914
tp138
a(F37.7973979
F-122.4079887
tp139
a(F37.7900086
F-122.4069958
tp140
a(F37.7765378
F-122.417533
tp141
a(F37.8046453
F-122.2946483
tp142
a(F37.772161
F-122.414416
tp143
a(F37.7737827
F-122.4007894
tp144
a(F37.7976722
F-122.3934645
tp145
a.