(lp0
(F37.7853808
F-122.4127703
tp1
a(F37.7762738
F-122.3945371
tp2
a(F37.7901848
F-122.4049036
tp3
a(F37.7900407
F-122.4060452
tp4
a(F37.7939291
F-122.3956372
tp5
a(F37.7922734
F-122.392562
tp6
a(F37.7924215
F-122.3923691
tp7
a(F37.7907565
F-122.4067542
tp8
a(F37.7949895
F-122.3945953
tp9
a(F37.7757717
F-122.3934661
tp10
a(F37.776585
F-122.3900465
tp11
a(F37.7950232
F-122.3943521
tp12
a(F37.7803303
F-122.4137623
tp13
a(F37.7800138
F-122.4149551
tp14
a(F37.7940764
F-122.3930006
tp15
a(F37.7761903
F-122.3938525
tp16
a(F37.7797444
F-122.3894696
tp17
a(F37.7915345
F-122.390907
tp18
a(F37.7894889
F-122.3886289
tp19
a(F37.7947759
F-122.4022057
tp20
a(F37.7754451
F-122.4001978
tp21
a(F37.7849432
F-122.3894783
tp22
a(F37.7869159
F-122.3887536
tp23
a(F37.7738549
F-122.4053075
tp24
a(F37.7734816
F-122.4026819
tp25
a(F37.7748144
F-122.4009956
tp26
a(F37.7920976
F-122.4088284
tp27
a(F37.791835
F-122.410818
tp28
a(F37.7765443
F-122.3901215
tp29
a(F37.7879147
F-122.3882593
tp30
a(F37.7886003
F-122.4135496
tp31
a(F37.7730559
F-122.4032204
tp32
a(F37.793774
F-122.4029539
tp33
a(F37.7925337
F-122.390976
tp34
a(F37.7749964
F-122.4131572
tp35
a(F37.793844
F-122.39888
tp36
a(F37.7945926
F-122.3965434
tp37
a(F37.794278
F-122.3989669
tp38
a(F37.793309
F-122.4066399
tp39
a(F37.793068
F-122.4085419
tp40
a(F37.781549
F-122.416341
tp41
a(F37.7853315
F-122.3885182
tp42
a(F37.7858005
F-122.4129795
tp43
a(F37.7936036
F-122.3921804
tp44
a(F37.792458
F-122.3912604
tp45
a(F37.7876635
F-122.4133539
tp46
a(F37.7847039
F-122.3884835
tp47
a(F37.7739736
F-122.4020601
tp48
a(F37.774993
F-122.4100825
tp49
a(F37.7874389
F-122.4128873
tp50
a(F37.7905664
F-122.4056083
tp51
a(F37.7759585
F-122.3979976
tp52
a(F37.7851984
F-122.4139367
tp53
a(F37.7828827
F-122.3889302
tp54
a(F37.791536
F-122.405441
tp55
a(F37.7773181
F-122.4148936
tp56
a(F37.7908804
F-122.4106282
tp57
a(F37.784657
F-122.41443
tp58
a(F37.78652
F-122.414807
tp59
a(F37.7950365
F-122.4003339
tp60
a(F37.7940596
F-122.4079004
tp61
a(F37.790931
F-122.406426
tp62
a(F37.7762333
F-122.4147161
tp63
a(F37.7745686
F-122.4126224
tp64
a(F37.7742034
F-122.4121657
tp65
a(F37.7787254
F-122.4147576
tp66
a(F37.7807118
F-122.4153225
tp67
a(F37.7913044
F-122.4073403
tp68
a(F37.775893
F-122.409997
tp69
a(F37.782585
F-122.415694
tp70
a(F37.783514
F-122.4158826
tp71
a(F37.7764564
F-122.3947677
tp72
a(F37.7934822
F-122.4073952
tp73
a(F37.775737
F-122.401054
tp74
a(F37.7932952
F-122.3921106
tp75
a(F37.7773491
F-122.3899824
tp76
a(F37.7766031
F-122.392278
tp77
a(F37.7945785
F-122.396649
tp78
a(F37.7798939
F-122.4143206
tp79
a(F37.7797073
F-122.4142827
tp80
a(F37.793841
F-122.3959586
tp81
a(F37.7907794
F-122.410609
tp82
a(F37.7757892
F-122.3944965
tp83
a(F37.7758918
F-122.3933219
tp84
a(F37.7921343
F-122.4083642
tp85
a(F37.776879
F-122.3905376
tp86
a(F37.7896861
F-122.3896821
tp87
a(F37.789366
F-122.3900777
tp88
a(F37.7922333
F-122.3911531
tp89
a(F37.794791
F-122.3978725
tp90
a(F37.7945585
F-122.4004368
tp91
a(F37.794216
F-122.403047
tp92
a(F37.7929572
F-122.4093574
tp93
a(F37.7646784
F-122.4200521
tp94
a(F37.7739344
F-122.4021095
tp95
a(F37.7799165
F-122.3896839
tp96
a(F37.7746457
F-122.4074147
tp97
a(F37.781626
F-122.3892465
tp98
a(F37.7778895
F-122.4146066
tp99
a(F37.7951152
F-122.3957615
tp100
a(F37.78974
F-122.412076
tp101
a(F37.794824
F-122.3947928
tp102
a(F37.7942494
F-122.3940643
tp103
a(F37.7948505
F-122.3948136
tp104
a(F37.7950535
F-122.3948129
tp105
a(F37.7951555
F-122.3957049
tp106
a(F37.794088
F-122.3940169
tp107
a(F37.794221
F-122.393746
tp108
a(F37.7943694
F-122.3940625
tp109
a(F37.7760967
F-122.3943445
tp110
a(F37.7761062
F-122.394534
tp111
a(F37.7763203
F-122.3937477
tp112
a(F37.7760829
F-122.3940146
tp113
a(F37.7753451
F-122.3972279
tp114
a(F37.7748614
F-122.4087395
tp115
a(F37.7940412
F-122.3935707
tp116
a(F37.7940306
F-122.3940278
tp117
a(F37.7944018
F-122.3940222
tp118
a(F37.7950629
F-122.394803
tp119
a(F37.7945474
F-122.4002266
tp120
a(F37.7803942
F-122.4135853
tp121
a(F37.795162
F-122.3940528
tp122
a(F37.7947565
F-122.4023634
tp123
a(F37.7945613
F-122.3963143
tp124
a(F37.794156
F-122.3927772
tp125
a(F37.7796844
F-122.4142939
tp126
a(F37.7949866
F-122.3942622
tp127
a(F37.7879446
F-122.4134116
tp128
a(F37.794831
F-122.3940875
tp129
a(F37.780824
F-122.414484
tp130
a(F37.7948363
F-122.3941563
tp131
a(F37.7907372
F-122.390154
tp132
a(F37.8046453
F-122.2946483
tp133
a(F37.7927319
F-122.4038316
tp134
a(F37.7737827
F-122.4007894
tp135
a(F37.7922171
F-122.4043467
tp136
a(F37.7927661
F-122.4072969
tp137
a(F37.795306
F-122.401582
tp138
a.