(lp0
(F37.7969121
F-122.4129679
tp1
a(F37.7721103
F-122.3879014
tp2
a(F37.8021261
F-122.4033531
tp3
a(F37.8005557
F-122.4096665
tp4
a(F37.8004838
F-122.410383
tp5
a(F37.749074
F-122.4175919
tp6
a(F37.7491384
F-122.4165194
tp7
a(F37.7702459
F-122.4176179
tp8
a(F37.7505376
F-122.4214466
tp9
a(F37.8045103
F-122.2915031
tp10
a(F37.8046074
F-122.2914542
tp11
a(F37.7536648
F-122.4214074
tp12
a(F37.8066821
F-122.292819
tp13
a(F37.8000885
F-122.3943795
tp14
a(F37.7691076
F-122.4192016
tp15
a(F37.7727398
F-122.4083163
tp16
a(F37.7974365
F-122.3954649
tp17
a(F37.7062887
F-122.4690648
tp18
a(F37.7719955
F-122.3897065
tp19
a(F37.7778123
F-122.4231654
tp20
a(F37.7710912
F-122.3896173
tp21
a(F37.806806
F-122.2929386
tp22
a(F37.7788864
F-122.4216948
tp23
a(F37.7705515
F-122.4176328
tp24
a(F37.773915
F-122.3850835
tp25
a(F37.7723041
F-122.3949225
tp26
a(F37.7845399
F-122.4228367
tp27
a(F37.7504832
F-122.4209998
tp28
a(F37.769339
F-122.42147
tp29
a(F37.7646629
F-122.4260702
tp30
a(F37.7602997
F-122.41814
tp31
a(F37.7602337
F-122.419228
tp32
a(F37.760189
F-122.419975
tp33
a(F37.7907971
F-122.4190672
tp34
a(F37.765454
F-122.413139
tp35
a(F37.7959782
F-122.4142425
tp36
a(F37.7684064
F-122.417817
tp37
a(F37.7981631
F-122.4121068
tp38
a(F37.8013954
F-122.401502
tp39
a(F37.7570396
F-122.4189224
tp40
a(F37.8005779
F-122.4043568
tp41
a(F37.775695
F-122.421053
tp42
a(F37.7993257
F-122.4065418
tp43
a(F37.7976579
F-122.4045973
tp44
a(F37.7919238
F-122.4175995
tp45
a(F37.780821
F-122.422087
tp46
a(F37.7681455
F-122.4221995
tp47
a(F37.7752085
F-122.4209536
tp48
a(F37.77118
F-122.4195799
tp49
a(F37.8006411
F-122.4075986
tp50
a(F37.8006016
F-122.4079174
tp51
a(F37.800545
F-122.408375
tp52
a(F37.800251
F-122.4108378
tp53
a(F37.7699421
F-122.4209527
tp54
a(F37.786402
F-122.423214
tp55
a(F37.7695306
F-122.4076423
tp56
a(F37.7937696
F-122.4151709
tp57
a(F37.7715365
F-122.420283
tp58
a(F37.763221
F-122.423075
tp59
a(F37.7631625
F-122.4240075
tp60
a(F37.7669359
F-122.4154813
tp61
a(F37.7525057
F-122.4141024
tp62
a(F37.7731691
F-122.4207698
tp63
a(F37.799203
F-122.3974501
tp64
a(F37.7992737
F-122.3978694
tp65
a(F37.7991177
F-122.3976009
tp66
a(F37.748941
F-122.419781
tp67
a(F37.7553033
F-122.4209648
tp68
a(F37.761701
F-122.421578
tp69
a(F37.7886922
F-122.4203133
tp70
a(F37.784283
F-122.421171
tp71
a(F37.784303
F-122.421018
tp72
a(F37.7773482
F-122.4230728
tp73
a(F37.7620369
F-122.4160992
tp74
a(F37.7619702
F-122.4171887
tp75
a(F37.777091
F-122.42133
tp76
a(F37.765178
F-122.424615
tp77
a(F37.7891624
F-122.4204155
tp78
a(F37.7759514
F-122.4227991
tp79
a(F37.781078
F-122.423825
tp80
a(F37.781536
F-122.423918
tp81
a(F37.766465
F-122.423281
tp82
a(F37.783619
F-122.422653
tp83
a(F37.7971117
F-122.413009
tp84
a(F37.7992919
F-122.3975308
tp85
a(F37.7323847
F-122.4362598
tp86
a(F37.753579
F-122.421493
tp87
a(F37.7880352
F-122.4217783
tp88
a(F37.8031044
F-122.4031748
tp89
a(F37.7949896
F-122.4148328
tp90
a(F37.7715031
F-122.3866682
tp91
a(F37.7854729
F-122.4230237
tp92
a(F37.7694529
F-122.4062261
tp93
a(F37.783151
F-122.422558
tp94
a(F37.793971
F-122.415674
tp95
a(F37.7992479
F-122.3973734
tp96
a(F37.796525
F-122.4134606
tp97
a(F37.799809
F-122.4066245
tp98
a(F37.7992088
F-122.411441
tp99
a(F37.75537
F-122.4198584
tp100
a(F37.749006
F-122.41871
tp101
a(F37.764741
F-122.414656
tp102
a(F37.774296
F-122.4207614
tp103
a(F37.776626
F-122.421235
tp104
a(F37.785014
F-122.422934
tp105
a(F37.769318
F-122.408436
tp106
a(F37.7645237
F-122.4233744
tp107
a(F37.8000435
F-122.4087555
tp108
a(F37.7871018
F-122.4215934
tp109
a(F37.793892
F-122.416292
tp110
a(F37.7695961
F-122.4199912
tp111
a(F37.7486745
F-122.418112
tp112
a(F37.7970974
F-122.2658867
tp113
a(F37.796332
F-122.417844
tp114
a(F37.7964134
F-122.4178525
tp115
a(F37.8036349
F-122.2917253
tp116
a(F37.7668697
F-122.4165702
tp117
a(F37.7717149
F-122.420525
tp118
a(F37.7718323
F-122.4205102
tp119
a(F37.7721919
F-122.4206046
tp120
a(F37.7705752
F-122.3911829
tp121
a(F37.8007734
F-122.4109539
tp122
a(F37.7540269
F-122.4154373
tp123
a(F37.753952
F-122.4153334
tp124
a(F37.8021576
F-122.2938356
tp125
a(F37.797132
F-122.407688
tp126
a(F37.8007077
F-122.39954
tp127
a(F37.7508128
F-122.4155588
tp128
a(F37.7335102
F-122.4341673
tp129
a(F37.8011801
F-122.4093421
tp130
a(F37.7325227
F-122.4353876
tp131
a(F37.7695422
F-122.4107606
tp132
a(F37.7695619
F-122.4155834
tp133
a(F37.7701525
F-122.413875
tp134
a(F37.769934
F-122.4146969
tp135
a(F37.7664017
F-122.4243097
tp136
a(F37.8005992
F-122.3991493
tp137
a(F37.8059044
F-122.2973834
tp138
a(F37.8058095
F-122.2973577
tp139
a(F37.773281
F-122.419882
tp140
a(F37.8048282
F-122.2985319
tp141
a(F37.7791649
F-122.4215668
tp142
a(F37.7799096
F-122.4217259
tp143
a(F37.7787907
F-122.4214869
tp144
a(F37.7718008
F-122.39728
tp145
a(F37.7718439
F-122.397181
tp146
a(F37.7944996
F-122.3897233
tp147
a(F37.7723319
F-122.3895363
tp148
a(F37.769954
F-122.4131559
tp149
a(F37.7738065
F-122.3850749
tp150
a(F37.8035264
F-122.2915536
tp151
a(F37.8008184
F-122.4094523
tp152
a(F37.8003606
F-122.4098603
tp153
a(F37.7217544
F-122.4476201
tp154
a(F37.7508444
F-122.4150359
tp155
a(F37.8026144
F-122.29589
tp156
a(F37.8028694
F-122.2969963
tp157
a(F37.8066133
F-122.2956437
tp158
a(F37.8069025
F-122.2930497
tp159
a(F37.8031011
F-122.2980404
tp160
a(F37.7674262
F-122.4226103
tp161
a(F37.760148
F-122.42066
tp162
a(F37.798208
F-122.411755
tp163
a(F37.7333538
F-122.4322882
tp164
a(F37.7711307
F-122.4008049
tp165
a(F37.8000293
F-122.4049981
tp166
a(F37.768362
F-122.4185562
tp167
a(F37.7727855
F-122.3983158
tp168
a(F37.7699964
F-122.42018
tp169
a(F37.7723394
F-122.3950531
tp170
a(F37.7717378
F-122.3984691
tp171
a(F37.7527676
F-122.4228992
tp172
a(F37.7721919
F-122.4208192
tp173
a(F37.799829
F-122.398883
tp174
a(F37.748906
F-122.4203656
tp175
a(F37.802311
F-122.401794
tp176
a(F37.7712664
F-122.4188527
tp177
a(F37.7323474
F-122.4344777
tp178
a(F37.7907799
F-122.4190632
tp179
a(F37.7808349
F-122.4219765
tp180
a(F37.789624
F-122.4205068
tp181
a(F37.801068
F-122.400343
tp182
a(F37.7221394
F-122.447516
tp183
a(F37.7706805
F-122.4176846
tp184
a(F37.7319087
F-122.4358939
tp185
a(F37.7725048
F-122.4018826
tp186
a(F37.7725247
F-122.4022126
tp187
a(F37.7491708
F-122.4159751
tp188
a(F37.7875696
F-122.4216863
tp189
a(F37.792972
F-122.416443
tp190
a(F37.7701197
F-122.4038074
tp191
a(F37.770057
F-122.4038988
tp192
a(F37.772375
F-122.4210424
tp193
a(F37.7637706
F-122.4151641
tp194
a(F37.7636937
F-122.4152926
tp195
a(F37.7742512
F-122.4205738
tp196
a(F37.7741402
F-122.4204617
tp197
a(F37.8071691
F-122.2942745
tp198
a(F37.7982293
F-122.3932042
tp199
a(F37.8037952
F-122.2715206
tp200
a(F37.7489735
F-122.4192363
tp201
a(F37.7697068
F-122.4113359
tp202
a(F37.8058333
F-122.292198
tp203
a(F37.8026732
F-122.2940886
tp204
a(F37.7997208
F-122.405799
tp205
a(F37.7870792
F-122.4217463
tp206
a(F37.782685
F-122.422464
tp207
a(F37.7709236
F-122.4178922
tp208
a(F37.7710643
F-122.4180865
tp209
a(F37.7711204
F-122.4180037
tp210
a(F37.8060644
F-122.2969657
tp211
a(F37.7555074
F-122.4165673
tp212
a(F37.7554955
F-122.4177728
tp213
a(F37.7554416
F-122.4176742
tp214
a(F37.7491059
F-122.4170669
tp215
a(F37.7664084
F-122.4242153
tp216
a(F37.763168
F-122.42391
tp217
a(F37.7519806
F-122.4228345
tp218
a(F37.7976722
F-122.3934645
tp219
a(F37.7700455
F-122.403983
tp220
a.