(lp0
(F37.7837949
F-122.3985453
tp1
a(F37.7823778
F-122.4058793
tp2
a(F37.7829974
F-122.397953
tp3
a(F37.786773
F-122.3982588
tp4
a(F37.7814932
F-122.4049417
tp5
a(F37.7849352
F-122.4047815
tp6
a(F37.7846577
F-122.3978415
tp7
a(F37.7826516
F-122.4003824
tp8
a(F37.7802668
F-122.403403
tp9
a(F37.787011
F-122.399975
tp10
a(F37.786634
F-122.399502
tp11
a(F37.7868603
F-122.4012725
tp12
a(F37.7815816
F-122.4006212
tp13
a(F37.7859288
F-122.4024939
tp14
a(F37.781547
F-122.402849
tp15
a(F37.783818
F-122.4008988
tp16
a(F37.7851262
F-122.3992037
tp17
a(F37.7857093
F-122.402768
tp18
a(F37.7866027
F-122.4024758
tp19
a(F37.7855328
F-122.40403
tp20
a(F37.7839997
F-122.4048687
tp21
a.