(dp0
L222722L
I0
sL200708L
I0
sL313861L
I1
sL115718L
I1
sL227073L
I0
sL495114L
I1
sL216587L
I1
sL111824L
I1
sL190477L
I1
sL115727L
I1
sL115728L
I1
sL230744L
I1
sL151571L
I0
sL120750L
I1
sL123414L
I1
sL194583L
I1
sL481305L
I1
sL192027L
I0
sL171013L
I0
sL109830L
I1
sL440875L
I0
sL491056L
I0
sL464433L
I1
sL235570L
I1
sL109623L
I1
sL352312L
I1
sL302516L
I1
sL247354L
I0
sL123452L
I1
sL469060L
I0
sL115783L
I1
sL218696L
I1
sL124489L
I1
sL202424L
I1
sL390220L
I1
sL264782L
I1
sL133199L
I0
sL257208L
I1
sL106066L
I1
sL106067L
I1
sL440917L
I1
sL269910L
I1
sL220411L
I1
sL456282L
I1
sL198503L
I1
sL487185L
I1
sL129640L
I1
sL181867L
I1
sL124524L
I1
sL124525L
I0
sL480879L
I1
sL480880L
I1
sL455187L
I0
sL113780L
I0
sL124533L
I1
sL441975L
I1
sL318072L
I1
sL122491L
I1
sL206461L
I1
sL244350L
I0
sL127103L
I1
sL118494L
I1
sL487556L
I1
sL480901L
I1
sL114822L
I1
sL232084L
I1
sL115993L
I1
sL114335L
I1
sL272030L
I0
sL110021L
I1
sL119457L
I1
sL208040L
I1
sL208041L
I1
sL452276L
I0
sL134326L
I1
sL203959L
I1
sL105656L
I1
sL481977L
I1
sL124092L
I1
sL191678L
I1
sL449217L
I1
sL108742L
I1
sL198433L
I0
sL205090L
I1
sL469712L
I1
sL436435L
I1
sL195926L
I1
sL230618L
I0
sL107230L
I1
sL479967L
I1
sL107232L
I1
sL377569L
I0
sL132324L
I0
sL111336L
I0
sL479979L
I1
sL215276L
I1
sL198893L
I1
sL194803L
I0
sL124148L
I0
sL111230L
I0
sL129783L
I1
sL181726L
I1
sL193273L
I1
sL161018L
I0
sL116987L
I1
sL106236L
I1
sL195370L
I1
sL259327L
I0
sL210688L
I1
sL447745L
I1
sL114219L
I1
sL452869L
I1
sL487686L
I1
sL263431L
I1
sL196360L
I1
sL458507L
I1
sL120016L
I1
sL230158L
I1
sL487696L
I1
sL140760L
I1
sL111236L
I1
sL258843L
I0
sL164126L
I1
sL205089L
I1
sL164130L
I1
sL164131L
I1
sL112932L
I1
sL164133L
I1
sL111409L
I1
sL437034L
I1
sL164139L
I1
sL122674L
I1
sL114653L
I1
sL164145L
I1
sL129842L
I1
sL164149L
I1
sL164153L
I1
sL164155L
I1
sL107231L
I1
sL448821L
I1
sL458565L
I1
sL128747L
I1
sL452937L
I1
sL123447L
I1
sL117069L
I1
sL293712L
I1
sL221752L
I1
sL197460L
I1
sL129366L
I1
sL129367L
I1
sL129368L
I1
sL128740L
I1
sL492378L
I1
sL148828L
I1
sL105310L
I1
sL192358L
I1
sL293735L
I1
sL211817L
I1
sL123242L
I1
sL106346L
I1
sL195439L
I1
sL207080L
I1
sL127347L
I1
sL491384L
I1
sL115065L
I1
sL141179L
I1
sL170879L
I1
sL134528L
I0
sL134529L
I0
sL247019L
I0
sL169350L
I0
sL470923L
I1
sL116620L
I1
sL109455L
I0
sL145299L
I1
sL458135L
I1
sL121924L
I1
sL121756L
I1
sL218525L
I1
sL479136L
I1
sL113569L
I1
sL122274L
I1
sL113571L
I1
sL163750L
I1
sL234414L
I1
sL120243L
I1
sL128436L
I1
sL114613L
I1
sL203190L
I1
sL122441L
I0
sL169941L
I1
sL115131L
I1
sL115134L
I1
sL116555L
I1
sL211396L
I1
sL125381L
I1
sL325281L
I1
sL162762L
I0
sL333266L
I0
sL121299L
I0
sL248276L
I1
sL420942L
I0
sL140759L
I1
sL479704L
I1
sL208857L
I0
sL123355L
I1
sL185308L
I1
sL140765L
I1
sL133598L
I1
sL453089L
I1
sL311779L
I1
sL455144L
I1
sL122346L
I1
sL226799L
I1
sL127472L
I1
sL208881L
I1
sL123893L
I1
sL470006L
I1
sL244729L
I1
sL126459L
I0
sL203775L
I1
s.