(dp0
L222722L
I60
sL200708L
I35
sL313861L
I60
sL115718L
I15
sL227073L
I60
sL216587L
I45
sL111824L
I60
sL190477L
I15
sL115727L
I15
sL115728L
I20
sL230744L
I60
sL151571L
I60
sL120750L
I30
sL123414L
I20
sL194583L
I20
sL481305L
I25
sL192027L
I60
sL171013L
I60
sL109830L
I20
sL440875L
I35
sL491056L
I35
sL464433L
I20
sL235570L
I5
sL109623L
I60
sL352312L
I20
sL302516L
I25
sL247354L
I45
sL123452L
I35
sL469060L
I40
sL115783L
I25
sL218696L
I30
sL124489L
I60
sL202424L
I15
sL390220L
I25
sL264782L
I10
sL133199L
I20
sL257208L
I20
sL106066L
I15
sL106067L
I20
sL440917L
I30
sL269910L
I25
sL220411L
I25
sL456282L
I20
sL198503L
I15
sL487185L
I10
sL129640L
I40
sL181867L
I20
sL124524L
I25
sL124525L
I60
sL480879L
I20
sL480880L
I30
sL455187L
I60
sL113780L
I60
sL124533L
I25
sL441975L
I45
sL318072L
I35
sL122491L
I20
sL206461L
I35
sL244350L
I60
sL127103L
I20
sL118494L
I20
sL487556L
I20
sL480901L
I30
sL114822L
I20
sL232084L
I60
sL115993L
I20
sL114335L
I15
sL272030L
I60
sL110021L
I25
sL119457L
I20
sL208040L
I25
sL208041L
I25
sL452276L
I60
sL134326L
I20
sL203959L
I60
sL105656L
I60
sL481977L
I30
sL124092L
I20
sL191678L
I60
sL449217L
I25
sL108742L
I20
sL198433L
I60
sL205090L
I40
sL469712L
I15
sL436435L
I25
sL195926L
I10
sL230618L
I40
sL107230L
I20
sL479967L
I60
sL107232L
I35
sL377569L
I60
sL132324L
I60
sL111336L
I60
sL479979L
I15
sL215276L
I35
sL198893L
I20
sL194803L
I60
sL124148L
I60
sL111230L
I60
sL129783L
I20
sL181726L
I20
sL193273L
I30
sL161018L
I60
sL116987L
I15
sL106236L
I25
sL195370L
I10
sL259327L
I60
sL210688L
I20
sL447745L
I35
sL114219L
I10
sL452869L
I35
sL487686L
I20
sL263431L
I60
sL196360L
I25
sL458507L
I30
sL120016L
I30
sL230158L
I20
sL487696L
I60
sL140760L
I25
sL111236L
I30
sL258843L
I60
sL164126L
I15
sL205089L
I60
sL164130L
I20
sL164131L
I15
sL112932L
I15
sL164133L
I20
sL111409L
I60
sL437034L
I35
sL164139L
I30
sL122674L
I20
sL114653L
I15
sL164145L
I15
sL129842L
I20
sL164149L
I10
sL164153L
I20
sL164155L
I15
sL107231L
I60
sL448821L
I15
sL458565L
I10
sL128747L
I40
sL452937L
I20
sL123447L
I15
sL117069L
I15
sL293712L
I20
sL221752L
I60
sL197460L
I30
sL129366L
I15
sL129367L
I20
sL129368L
I15
sL128740L
I30
sL492378L
I25
sL148828L
I20
sL105310L
I15
sL192358L
I20
sL293735L
I25
sL211817L
I60
sL123242L
I35
sL106346L
I60
sL195439L
I10
sL207080L
I20
sL127347L
I25
sL491384L
I60
sL115065L
I20
sL141179L
I10
sL170879L
I15
sL134528L
I45
sL134529L
I60
sL247019L
I60
sL169350L
I60
sL470923L
I15
sL116620L
I60
sL109455L
I60
sL145299L
I5
sL458135L
I10
sL121924L
I35
sL121756L
I25
sL218525L
I35
sL479136L
I20
sL113569L
I30
sL122274L
I10
sL113571L
I30
sL163750L
I60
sL234414L
I15
sL120243L
I10
sL128436L
I15
sL114613L
I20
sL203190L
I45
sL122441L
I40
sL169941L
I60
sL115131L
I40
sL115134L
I15
sL116555L
I20
sL211396L
I60
sL125381L
I20
sL325281L
I25
sL162762L
I45
sL333266L
I35
sL121299L
I60
sL248276L
I15
sL420942L
I60
sL140759L
I20
sL479704L
I20
sL208857L
I60
sL123355L
I20
sL185308L
I30
sL140765L
I15
sL133598L
I60
sL453089L
I20
sL311779L
I40
sL455144L
I20
sL122346L
I60
sL226799L
I30
sL127472L
I30
sL208881L
I25
sL123893L
I10
sL470006L
I15
sL244729L
I30
sL126459L
I35
sL203775L
I20
s.