(lp0
(F37.7886959
F-122.4024413
tp1
a(F37.7855054
F-122.407789
tp2
a(F37.789085
F-122.4021403
tp3
a(F37.7891389
F-122.4017132
tp4
a(F37.788924
F-122.4021632
tp5
a(F37.7891843
F-122.4020137
tp6
a(F37.7891904
F-122.4019645
tp7
a(F37.7890279
F-122.4020845
tp8
a(F37.7875664
F-122.406589
tp9
a(F37.7891491
F-122.3995307
tp10
a(F37.7822033
F-122.3947506
tp11
a(F37.7809058
F-122.3963913
tp12
a(F37.7817636
F-122.4097034
tp13
a(F37.7814094
F-122.4092587
tp14
a(F37.7809779
F-122.4087215
tp15
a(F37.7805494
F-122.4081852
tp16
a(F37.7789407
F-122.406166
tp17
a(F37.7785107
F-122.4056272
tp18
a(F37.7776979
F-122.4046087
tp19
a(F37.7810653
F-122.3955329
tp20
a(F37.7892316
F-122.3951477
tp21
a(F37.7788519
F-122.4082752
tp22
a(F37.7888918
F-122.4036784
tp23
a(F37.7843129
F-122.3951781
tp24
a(F37.7835224
F-122.3941697
tp25
a(F37.7866845
F-122.3952742
tp26
a(F37.7893521
F-122.397043
tp27
a(F37.7891785
F-122.3983179
tp28
a(F37.7793049
F-122.4088288
tp29
a(F37.7889719
F-122.3965667
tp30
a(F37.7882384
F-122.4051326
tp31
a(F37.7880968
F-122.3954718
tp32
a(F37.7877231
F-122.395005
tp33
a(F37.783251
F-122.395397
tp34
a(F37.7803575
F-122.3990912
tp35
a(F37.785929
F-122.39508
tp36
a(F37.7843968
F-122.3965782
tp37
a(F37.7800886
F-122.4018824
tp38
a(F37.779524
F-122.401839
tp39
a(F37.7799941
F-122.3986337
tp40
a(F37.77809
F-122.4061601
tp41
a(F37.7845765
F-122.4073571
tp42
a(F37.7790353
F-122.4018579
tp43
a(F37.7807911
F-122.399635
tp44
a(F37.7864985
F-122.3955988
tp45
a(F37.789174
F-122.400358
tp46
a(F37.7834902
F-122.3952102
tp47
a(F37.786431
F-122.4080344
tp48
a(F37.786718
F-122.3953163
tp49
a(F37.7839993
F-122.4080907
tp50
a(F37.7892837
F-122.4013982
tp51
a(F37.779005
F-122.403883
tp52
a.