(lp0
(F37.7436409
F-122.4162253
tp1
a(F37.8572698
F-122.268468
tp2
a(F37.8665111
F-122.2679092
tp3
a(F37.8453229
F-122.2487487
tp4
a(F37.8448665
F-122.2561295
tp5
a(F37.8485802
F-122.2713949
tp6
a(F37.7506797
F-122.429569
tp7
a(F37.71827
F-122.4408967
tp8
a(F37.8077052
F-122.2837464
tp9
a(F37.761826
F-122.38769
tp10
a(F37.8574362
F-122.2682531
tp11
a(F37.7437141
F-122.4265324
tp12
a(F37.7445068
F-122.4266117
tp13
a(F37.7211474
F-122.159686
tp14
a(F37.7239563
F-122.161504
tp15
a(F37.7932982
F-122.4279911
tp16
a(F37.7290654
F-122.4524623
tp17
a(F37.7716416
F-122.4303611
tp18
a(F37.8667158
F-122.2674601
tp19
a(F37.8574436
F-122.2678194
tp20
a(F37.8152807
F-122.2941999
tp21
a(F37.770667
F-122.2290144
tp22
a(F37.7631123
F-122.4344157
tp23
a(F37.7268864
F-122.4547318
tp24
a(F37.7267607
F-122.4549991
tp25
a(F37.7269851
F-122.455153
tp26
a(F37.7265894
F-122.4552286
tp27
a(F37.8458404
F-122.2549768
tp28
a(F37.8459124
F-122.2551216
tp29
a(F37.8003803
F-122.2764313
tp30
a(F37.6638545
F-122.4431471
tp31
a(F37.7692351
F-122.4327424
tp32
a(F37.715257
F-122.4506053
tp33
a(F37.7927424
F-122.272492
tp34
a(F37.79183
F-122.2708638
tp35
a(F37.848705
F-122.2717367
tp36
a(F37.8101274
F-122.4104623
tp37
a(F37.8119945
F-122.2618354
tp38
a(F37.7519025
F-122.4034115
tp39
a(F37.8331097
F-122.2627165
tp40
a(F37.8324372
F-122.2617153
tp41
a(F37.8303587
F-122.2610263
tp42
a(F37.8309773
F-122.2609379
tp43
a(F37.774233
F-122.2285277
tp44
a(F37.7743206
F-122.230639
tp45
a(F37.759425
F-122.4099034
tp46
a(F37.7593911
F-122.4079767
tp47
a(F37.8487799
F-122.2717055
tp48
a(F37.8486477
F-122.2715462
tp49
a(F37.8396562
F-122.2508695
tp50
a(F37.6812148
F-122.4630101
tp51
a(F37.825904
F-122.2668833
tp52
a(F37.7900385
F-122.2667305
tp53
a(F37.8033164
F-122.4166328
tp54
a(F37.8495227
F-122.2725763
tp55
a(F37.8495898
F-122.2727296
tp56
a(F37.8502858
F-122.2737588
tp57
a(F37.7269781
F-122.4383585
tp58
a(F37.725288
F-122.4383573
tp59
a(F37.7900915
F-122.2689418
tp60
a(F37.772132
F-122.2182356
tp61
a(F37.7641312
F-122.4353377
tp62
a(F37.8380283
F-122.2530705
tp63
a(F37.761484
F-122.3908368
tp64
a(F37.7610504
F-122.3913614
tp65
a(F37.8086102
F-122.2819276
tp66
a(F37.8086548
F-122.2816847
tp67
a(F37.8090998
F-122.2839672
tp68
a(F37.8071904
F-122.2826768
tp69
a(F37.8435121
F-122.2468438
tp70
a(F37.637784
F-122.4157776
tp71
a(F37.6379057
F-122.4158428
tp72
a(F37.8025878
F-122.2898203
tp73
a(F37.7595121
F-122.4099267
tp74
a(F37.8153701
F-122.2701374
tp75
a(F37.722959
F-122.4381103
tp76
a(F37.8156181
F-122.2905981
tp77
a(F37.8093051
F-122.4102742
tp78
a(F37.7398762
F-122.4255864
tp79
a(F37.7398007
F-122.4254811
tp80
a(F37.7397868
F-122.4257119
tp81
a(F37.7419907
F-122.4268451
tp82
a(F37.8134631
F-122.2742916
tp83
a(F37.8018999
F-122.2795062
tp84
a(F37.8031224
F-122.2808228
tp85
a(F37.6884706
F-122.4658662
tp86
a(F37.7980191
F-122.2748041
tp87
a(F37.7773653
F-122.2179771
tp88
a(F37.7586432
F-122.4322012
tp89
a(F37.748763
F-122.4057319
tp90
a(F37.6637345
F-122.4473356
tp91
a(F37.6622879
F-122.4438506
tp92
a(F37.6600991
F-122.441845
tp93
a(F37.7385282
F-122.4331546
tp94
a(F37.8457124
F-122.2455468
tp95
a(F37.7622206
F-122.4361403
tp96
a(F37.7972575
F-122.2589978
tp97
a(F37.8330556
F-122.2641348
tp98
a(F37.8673167
F-122.2699034
tp99
a(F37.7538234
F-122.1964067
tp100
a(F37.6885542
F-122.4660986
tp101
a(F37.7526937
F-122.2017313
tp102
a(F37.7341276
F-122.4225805
tp103
a(F37.8060604
F-122.2816849
tp104
a(F37.8054985
F-122.2806668
tp105
a(F37.8060931
F-122.2818196
tp106
a(F37.8054272
F-122.2806474
tp107
a(F37.8053675
F-122.2815762
tp108
a(F37.8022457
F-122.2808047
tp109
a(F37.8054283
F-122.2814043
tp110
a(F37.750681
F-122.1934699
tp111
a(F37.7282679
F-122.4507986
tp112
a(F37.8025239
F-122.2793615
tp113
a(F37.7492877
F-122.4048753
tp114
a(F37.7741788
F-122.228898
tp115
a(F37.7743952
F-122.2292362
tp116
a(F37.8155907
F-122.290524
tp117
a(F37.7680559
F-122.3937355
tp118
a(F37.6883019
F-122.4676778
tp119
a(F37.6857129
F-122.4707411
tp120
a(F37.8006689
F-122.2794213
tp121
a(F37.7147733
F-122.4515741
tp122
a(F37.8138987
F-122.2904477
tp123
a(F37.8121901
F-122.285534
tp124
a(F37.8143826
F-122.263503
tp125
a(F37.7927382
F-122.4279321
tp126
a(F37.7762027
F-122.4332835
tp127
a(F37.7759048
F-122.433397
tp128
a(F37.7182398
F-122.4571661
tp129
a(F37.7238814
F-122.4561687
tp130
a(F37.718309
F-122.4561452
tp131
a(F37.8781366
F-122.182871
tp132
a(F37.8791313
F-122.1835139
tp133
a(F37.8035392
F-122.2612643
tp134
a(F37.7348893
F-122.4430349
tp135
a(F37.7238874
F-122.1612657
tp136
a(F37.7233963
F-122.1624049
tp137
a(F37.7122513
F-122.4691541
tp138
a(F37.7422507
F-122.4241706
tp139
a(F37.8112986
F-122.2855006
tp140
a(F37.8154849
F-122.2641466
tp141
a(F37.7052629
F-122.4633362
tp142
a(F37.8034713
F-122.2609628
tp143
a(F37.7488849
F-122.4046886
tp144
a(F37.77749
F-122.433219
tp145
a(F37.7345307
F-122.423314
tp146
a(F37.7335061
F-122.4222693
tp147
a(F37.7321729
F-122.4237553
tp148
a(F37.8691056
F-122.2713414
tp149
a(F37.8697313
F-122.2711783
tp150
a(F37.8731522
F-122.282475
tp151
a(F37.8729429
F-122.2845355
tp152
a(F37.8729363
F-122.2846147
tp153
a(F37.8729668
F-122.2844089
tp154
a(F37.7639061
F-122.3956935
tp155
a(F37.7638479
F-122.3966592
tp156
a(F37.7637902
F-122.3976126
tp157
a(F37.7420172
F-122.4278906
tp158
a(F37.728357
F-122.4511439
tp159
a(F37.8042028
F-122.4150123
tp160
a(F37.8726762
F-122.2834756
tp161
a(F37.8730643
F-122.2821757
tp162
a(F37.8748808
F-122.2823827
tp163
a(F37.79113
F-122.430914
tp164
a(F37.746932
F-122.40705
tp165
a(F37.7614777
F-122.3934993
tp166
a(F37.7608336
F-122.4041415
tp167
a(F37.7607997
F-122.4051159
tp168
a(F37.759423
F-122.432638
tp169
a(F37.7422417
F-122.4243227
tp170
a(F37.7404013
F-122.4241257
tp171
a(F37.7622284
F-122.402337
tp172
a(F37.7707054
F-122.2189142
tp173
a(F37.789115
F-122.432197
tp174
a(F37.72878
F-122.441242
tp175
a(F37.7288601
F-122.4413155
tp176
a(F37.7397882
F-122.4317409
tp177
a(F37.7673366
F-122.4356463
tp178
a(F37.7665268
F-122.4355686
tp179
a(F37.7649249
F-122.435415
tp180
a(F37.7634621
F-122.4352748
tp181
a(F37.7608903
F-122.4350283
tp182
a(F37.805825
F-122.41195
tp183
a(F37.8079079
F-122.4107105
tp184
a(F37.7416576
F-122.4184103
tp185
a(F37.720557
F-122.4393825
tp186
a(F37.714256
F-122.446779
tp187
a(F37.8311152
F-122.2718665
tp188
a(F37.8325774
F-122.2702749
tp189
a(F37.8332738
F-122.2700855
tp190
a(F37.796481
F-122.42525
tp191
a(F37.7307155
F-122.4443148
tp192
a(F37.7310763
F-122.4443178
tp193
a(F37.7577691
F-122.4068601
tp194
a(F37.7563593
F-122.4301721
tp195
a(F37.728783
F-122.437205
tp196
a(F37.7274789
F-122.4383314
tp197
a(F37.726511
F-122.438217
tp198
a(F37.8039723
F-122.4184057
tp199
a(F37.8040871
F-122.4183314
tp200
a(F37.754832
F-122.428849
tp201
a(F37.8789376
F-122.184126
tp202
a(F37.7285046
F-122.4540112
tp203
a(F37.7470023
F-122.4060886
tp204
a(F37.7456361
F-122.4089677
tp205
a(F37.7403035
F-122.422255
tp206
a(F37.716609
F-122.45594
tp207
a(F37.7211517
F-122.4374911
tp208
a(F37.788639
F-122.2763213
tp209
a(F37.7593662
F-122.4070129
tp210
a(F37.7365468
F-122.4209687
tp211
a(F37.7935748
F-122.2732899
tp212
a(F37.7531269
F-122.4043785
tp213
a(F37.8706874
F-122.2649268
tp214
a(F37.7735664
F-122.4341318
tp215
a(F37.7275518
F-122.435401
tp216
a(F37.7236918
F-122.4375252
tp217
a(F37.7230338
F-122.437844
tp218
a(F37.7195001
F-122.4401438
tp219
a(F37.711399
F-122.467167
tp220
a(F37.7114539
F-122.4673059
tp221
a(F37.7275958
F-122.435536
tp222
a(F37.7229428
F-122.437729
tp223
a(F37.7195562
F-122.4402254
tp224
a(F37.714354
F-122.448064
tp225
a(F37.7308248
F-122.4232256
tp226
a(F37.7405815
F-122.4217417
tp227
a(F37.7579605
F-122.4302713
tp228
a(F37.753957
F-122.429884
tp229
a(F37.752362
F-122.429731
tp230
a(F37.74636
F-122.429155
tp231
a(F37.743749
F-122.410338
tp232
a(F37.804896
F-122.411766
tp233
a(F37.7604386
F-122.3895065
tp234
a(F37.7695547
F-122.3990381
tp235
a(F37.764898
F-122.400633
tp236
a(F37.7383994
F-122.4228527
tp237
a(F37.718094
F-122.443778
tp238
a(F37.785149
F-122.4330826
tp239
a(F37.769178
F-122.433572
tp240
a(F37.7395036
F-122.4385033
tp241
a(F37.7316038
F-122.4465981
tp242
a(F37.6825429
F-122.4616376
tp243
a(F37.7927195
F-122.2571987
tp244
a(F37.7925042
F-122.2570169
tp245
a(F37.7154402
F-122.453159
tp246
a(F37.7401807
F-122.4359136
tp247
a(F37.803807
F-122.41285
tp248
a(F37.803761
F-122.413223
tp249
a(F37.8033382
F-122.4165306
tp250
a(F37.8030123
F-122.4190732
tp251
a(F37.8029189
F-122.4198179
tp252
a(F37.7624643
F-122.4358838
tp253
a(F37.7615985
F-122.4127721
tp254
a(F37.7390062
F-122.4387316
tp255
a(F37.7397675
F-122.4392193
tp256
a(F37.7399316
F-122.4397478
tp257
a(F37.7556892
F-122.4278292
tp258
a(F37.7444981
F-122.4267568
tp259
a(F37.8086974
F-122.4115632
tp260
a(F37.8085612
F-122.4115924
tp261
a(F37.68468
F-122.4607585
tp262
a(F37.7106726
F-122.4653874
tp263
a(F37.7999873
F-122.416621
tp264
a(F37.6853544
F-122.4704768
tp265
a(F37.7142378
F-122.449406
tp266
a(F37.7244558
F-122.438272
tp267
a(F37.7279508
F-122.436372
tp268
a(F37.7413417
F-122.4187898
tp269
a(F37.785876
F-122.434918
tp270
a(F37.7174852
F-122.4561116
tp271
a(F37.801165
F-122.414855
tp272
a(F37.714983
F-122.452474
tp273
a(F37.720027
F-122.4581943
tp274
a(F37.7609586
F-122.4339044
tp275
a(F37.762696
F-122.394595
tp276
a(F37.8788501
F-122.1838276
tp277
a(F37.7754067
F-122.4345063
tp278
a(F37.740753
F-122.42984
tp279
a(F37.7402041
F-122.4303547
tp280
a(F37.799412
F-122.4224681
tp281
a(F37.74663
F-122.431412
tp282
a(F37.7357847
F-122.4201702
tp283
a(F37.74305
F-122.409968
tp284
a(F37.7422221
F-122.416993
tp285
a(F37.788159
F-122.432003
tp286
a(F37.7633652
F-122.4033848
tp287
a(F37.7201279
F-122.4404486
tp288
a(F37.7943988
F-122.4265244
tp289
a(F37.7953198
F-122.4267081
tp290
a(F37.735173
F-122.4221263
tp291
a(F37.728458
F-122.441945
tp292
a(F37.726282
F-122.42928
tp293
a(F37.725871
F-122.432857
tp294
a(F37.8011408
F-122.280592
tp295
a(F37.7711773
F-122.4302658
tp296
a(F37.7592518
F-122.4089045
tp297
a(F37.806758
F-122.412141
tp298
a(F37.715716
F-122.44249
tp299
a(F37.714087
F-122.444325
tp300
a(F37.760361
F-122.391418
tp301
a(F37.78235
F-122.432515
tp302
a(F37.732337
F-122.446591
tp303
a(F37.7406577
F-122.423858
tp304
a(F37.8054642
F-122.4105925
tp305
a(F37.8008319
F-122.4210696
tp306
a(F37.7742908
F-122.4359637
tp307
a(F37.7841059
F-122.4344379
tp308
a(F37.7841947
F-122.4328932
tp309
a(F37.7842308
F-122.4344675
tp310
a(F37.7413945
F-122.4200922
tp311
a(F37.8110761
F-122.2616
tp312
a(F37.8108992
F-122.261446
tp313
a(F37.787484
F-122.433553
tp314
a(F37.7392957
F-122.432218
tp315
a(F37.744427
F-122.40869
tp316
a(F37.7291502
F-122.4424791
tp317
a(F37.8118928
F-122.2620177
tp318
a(F37.7271978
F-122.438792
tp319
a(F37.728156
F-122.438635
tp320
a(F37.728404
F-122.439097
tp321
a(F37.7489618
F-122.4057743
tp322
a(F37.71594
F-122.442148
tp323
a(F37.7560974
F-122.2025289
tp324
a(F37.7976138
F-122.4238693
tp325
a(F37.7543443
F-122.4054705
tp326
a(F37.7569217
F-122.4052953
tp327
a(F37.7531227
F-122.2008326
tp328
a(F37.7118986
F-122.4684544
tp329
a(F37.726926
F-122.430965
tp330
a(F37.7170618
F-122.4424829
tp331
a(F37.7012772
F-122.4649605
tp332
a(F37.780287
F-122.433785
tp333
a(F37.77655
F-122.433028
tp334
a(F37.7728388
F-122.4323009
tp335
a(F37.7704997
F-122.4318216
tp336
a(F37.7491315
F-122.4052835
tp337
a(F37.7474454
F-122.4314781
tp338
a(F37.7281429
F-122.4427391
tp339
a(F37.7311153
F-122.4239469
tp340
a(F37.727457
F-122.427302
tp341
a(F37.8484077
F-122.2710137
tp342
a(F37.7199468
F-122.440215
tp343
a(F37.730251
F-122.423808
tp344
a(F37.778632
F-122.431763
tp345
a(F37.726665
F-122.4300841
tp346
a(F37.7406998
F-122.4232293
tp347
a(F37.748229
F-122.431557
tp348
a(F37.8700645
F-122.2705508
tp349
a(F37.728272
F-122.4465784
tp350
a(F37.7114172
F-122.4710875
tp351
a(F37.7087776
F-122.4710471
tp352
a(F37.7478753
F-122.4062727
tp353
a(F37.753025
F-122.432024
tp354
a(F37.8255925
F-122.2694885
tp355
a(F37.745016
F-122.408872
tp356
a(F37.7477115
F-122.4064421
tp357
a(F37.760463
F-122.389605
tp358
a(F37.726588
F-122.433357
tp359
a(F37.7682453
F-122.4337876
tp360
a(F37.7218429
F-122.4571823
tp361
a(F37.7394719
F-122.4238444
tp362
a(F37.727465
F-122.4453309
tp363
a(F37.8292943
F-122.2600476
tp364
a(F37.7631777
F-122.4344999
tp365
a(F37.8037375
F-122.415096
tp366
a(F37.8036672
F-122.4151484
tp367
a(F37.8146031
F-122.2877022
tp368
a(F37.7656611
F-122.4364054
tp369
a(F37.7972731
F-122.2573087
tp370
a(F37.7120783
F-122.4704738
tp371
a(F37.712177
F-122.4703504
tp372
a(F37.799342
F-122.2907297
tp373
a(F37.7993081
F-122.2904979
tp374
a(F37.797859
F-122.419623
tp375
a(F37.7046132
F-122.4737082
tp376
a(F37.8033203
F-122.2809583
tp377
a(F37.8038822
F-122.2808131
tp378
a(F37.6974359
F-122.1267238
tp379
a(F37.6982291
F-122.4707235
tp380
a(F37.7317441
F-122.4236108
tp381
a(F37.797455
F-122.2755443
tp382
a(F37.7485518
F-122.4060753
tp383
a(F37.7493208
F-122.4048542
tp384
a(F37.7456899
F-122.4075911
tp385
a(F37.7400567
F-122.4354397
tp386
a(F37.6878637
F-122.4641863
tp387
a(F37.7886587
F-122.276385
tp388
a(F37.6631634
F-122.441452
tp389
a(F37.6640037
F-122.4424533
tp390
a(F37.7904086
F-122.2700205
tp391
a(F37.6601862
F-122.4417028
tp392
a(F37.8009902
F-122.4208593
tp393
a(F37.7401951
F-122.4239806
tp394
a(F37.7494888
F-122.4052433
tp395
a(F37.8105959
F-122.2613794
tp396
a(F37.7079101
F-122.4648747
tp397
a(F37.6825
F-122.4652762
tp398
a(F37.749563
F-122.4053251
tp399
a(F37.7593232
F-122.4089378
tp400
a(F37.6860909
F-122.4608046
tp401
a(F37.7056017
F-122.4616525
tp402
a(F37.749228
F-122.4051507
tp403
a(F37.6832402
F-122.4607645
tp404
a(F37.7504884
F-122.1953166
tp405
a(F37.7008708
F-122.4680233
tp406
a(F37.7579258
F-122.3902194
tp407
a(F37.7593734
F-122.4068945
tp408
a(F37.7577766
F-122.4067368
tp409
a(F37.699475
F-122.4659319
tp410
a(F37.8481083
F-122.2494813
tp411
a(F37.7031516
F-122.4628471
tp412
a(F37.8324971
F-122.2652768
tp413
a(F37.8305915
F-122.273934
tp414
a(F37.6635919
F-122.4473569
tp415
a(F37.7964221
F-122.4252381
tp416
a(F37.6878705
F-122.4631392
tp417
a(F37.6878825
F-122.4620678
tp418
a(F37.7516427
F-122.4284538
tp419
a(F37.7515463
F-122.4285387
tp420
a(F37.7322683
F-122.4234186
tp421
a(F37.7321877
F-122.4236936
tp422
a(F37.7330118
F-122.4227521
tp423
a(F37.7401468
F-122.4337512
tp424
a(F37.7386129
F-122.4323918
tp425
a(F37.7838952
F-122.4318888
tp426
a(F37.7999097
F-122.2840587
tp427
a(F37.6994687
F-122.466954
tp428
a(F37.7780755
F-122.2303007
tp429
a(F37.6839649
F-122.4584271
tp430
a(F37.704116
F-122.4620483
tp431
a(F37.6868865
F-122.4701311
tp432
a(F37.7095954
F-122.4651986
tp433
a(F37.7975996
F-122.273894
tp434
a(F37.8337083
F-122.2636718
tp435
a(F37.8080963
F-122.2802924
tp436
a(F37.8093892
F-122.279827
tp437
a(F37.6839184
F-122.4686274
tp438
a(F37.769954
F-122.431867
tp439
a(F37.7993044
F-122.2758656
tp440
a(F37.7920849
F-122.4283623
tp441
a(F37.7517223
F-122.428557
tp442
a(F37.8080351
F-122.3069899
tp443
a(F37.7979617
F-122.2593961
tp444
a(F37.7983503
F-122.2585427
tp445
a(F37.6879142
F-122.4686946
tp446
a(F37.6626911
F-122.446329
tp447
a(F37.8512398
F-122.2734776
tp448
a(F37.7737271
F-122.2301692
tp449
a(F37.8033911
F-122.2613523
tp450
a(F37.8044779
F-122.2610064
tp451
a(F37.8569875
F-122.2678363
tp452
a(F37.8462152
F-122.2544353
tp453
a(F37.6649532
F-122.4438057
tp454
a(F37.6658716
F-122.4451514
tp455
a(F37.7074862
F-122.4638602
tp456
a(F37.774646
F-122.2293462
tp457
a(F37.6853777
F-122.4597918
tp458
a(F37.803463
F-122.4149638
tp459
a(F37.8036179
F-122.4151819
tp460
a(F37.800604
F-122.2835615
tp461
a(F37.79865
F-122.2587195
tp462
a(F37.9030167
F-122.299429
tp463
a(F37.7985772
F-122.4237867
tp464
a(F37.7980713
F-122.274572
tp465
a(F37.7913644
F-122.2657398
tp466
a(F37.7155217
F-122.4532362
tp467
a(F37.7564403
F-122.1987014
tp468
a(F37.7834798
F-122.4313218
tp469
a(F37.7831026
F-122.4314516
tp470
a(F37.838389
F-122.2538137
tp471
a(F37.83877
F-122.2545432
tp472
a(F37.8395103
F-122.2560094
tp473
a(F37.7620033
F-122.3886323
tp474
a(F37.7937093
F-122.2729357
tp475
a(F37.7985584
F-122.2761323
tp476
a(F37.8552933
F-122.266499
tp477
a(F37.7570029
F-122.200409
tp478
a(F37.810438
F-122.2762863
tp479
a(F37.7568989
F-122.1966914
tp480
a(F37.7572933
F-122.1974693
tp481
a(F37.751808
F-122.1986248
tp482
a(F37.8100545
F-122.3040868
tp483
a(F37.8714724
F-122.2659008
tp484
a(F37.7503002
F-122.1963202
tp485
a(F37.7599965
F-122.2045419
tp486
a(F37.750339
F-122.1996147
tp487
a(F37.7513723
F-122.1982794
tp488
a(F37.799546
F-122.2786488
tp489
a(F37.842411
F-122.2475395
tp490
a(F37.7927479
F-122.42785
tp491
a(F37.8148619
F-122.2646806
tp492
a(F37.870307
F-122.2646818
tp493
a(F37.8088407
F-122.2832923
tp494
a(F37.7401498
F-122.435825
tp495
a(F37.8106878
F-122.2610594
tp496
a(F37.7157364
F-122.4560959
tp497
a(F37.7158223
F-122.4560967
tp498
a(F37.8116887
F-122.2616445
tp499
a(F37.813459
F-122.2758422
tp500
a(F37.8292204
F-122.2595631
tp501
a(F37.7732507
F-122.230794
tp502
a(F37.8391388
F-122.2552796
tp503
a(F37.8678157
F-122.265989
tp504
a(F37.8679918
F-122.2657916
tp505
a(F37.8498786
F-122.2692098
tp506
a(F37.8296001
F-122.2722391
tp507
a(F37.8004542
F-122.2766196
tp508
a(F37.8735314
F-122.2858381
tp509
a(F37.7962644
F-122.2747002
tp510
a(F37.8123435
F-122.2750451
tp511
a(F37.814271
F-122.2723358
tp512
a(F37.8129247
F-122.2627661
tp513
a(F37.7944808
F-122.2575144
tp514
a(F37.735833
F-122.4444893
tp515
a(F37.7045146
F-122.4734494
tp516
a(F37.8700753
F-122.2669225
tp517
a(F37.8012026
F-122.4148627
tp518
a(F37.8939143
F-122.1238546
tp519
a(F37.7782043
F-122.2301779
tp520
a(F37.7931348
F-122.2714733
tp521
a(F37.8081422
F-122.3067991
tp522
a(F37.7717467
F-122.2264372
tp523
a(F37.8488175
F-122.2522044
tp524
a(F37.8398868
F-122.2567362
tp525
a(F37.7797956
F-122.2247441
tp526
a(F37.7986349
F-122.2588598
tp527
a(F37.8435603
F-122.2570018
tp528
a(F37.850214
F-122.2666833
tp529
a(F37.8500988
F-122.2675673
tp530
a(F37.7578278
F-122.1946664
tp531
a(F37.8318562
F-122.2599462
tp532
a(F37.8727599
F-122.2846306
tp533
a(F37.8451895
F-122.2572002
tp534
a(F37.8757797
F-122.2834708
tp535
a(F37.828301
F-122.2587659
tp536
a(F37.8307027
F-122.2739062
tp537
a(F37.8758429
F-122.2826402
tp538
a(F37.8730526
F-122.2823192
tp539
a(F37.7411658
F-122.4208946
tp540
a(F37.7706986
F-122.2198437
tp541
a(F37.7637318
F-122.3985796
tp542
a(F37.8246015
F-122.2656925
tp543
a(F37.7723482
F-122.2180324
tp544
a(F37.8134631
F-122.2891587
tp545
a(F37.7759231
F-122.2270985
tp546
a(F37.8720304
F-122.2689786
tp547
a(F37.8573158
F-122.2691321
tp548
a(F37.8574785
F-122.2679273
tp549
a(F37.7958564
F-122.2574221
tp550
a(F37.7767068
F-122.2213447
tp551
a(F37.7803813
F-122.2190962
tp552
a(F37.8540291
F-122.2732059
tp553
a(F37.8540765
F-122.2642795
tp554
a(F37.7807341
F-122.2200575
tp555
a(F37.7182419
F-122.4561183
tp556
a(F37.8533649
F-122.2641336
tp557
a(F37.7608913
F-122.4031826
tp558
a(F37.8113195
F-122.261643
tp559
a(F37.8741229
F-122.2811283
tp560
a(F37.7706203
F-122.2171489
tp561
a(F37.7230129
F-122.1606992
tp562
a(F37.7221382
F-122.1601133
tp563
a(F37.7911196
F-122.2597036
tp564
a(F37.7937417
F-122.2566689
tp565
a(F37.79742
F-122.2754552
tp566
a(F37.8446683
F-122.246015
tp567
a(F37.8102558
F-122.2778492
tp568
a(F37.8009359
F-122.2821905
tp569
a(F37.7561652
F-122.1959217
tp570
a(F37.7556354
F-122.1953836
tp571
a(F37.7535529
F-122.1932566
tp572
a(F37.7742429
F-122.2190902
tp573
a(F37.8275255
F-122.271675
tp574
a(F37.8285989
F-122.2714022
tp575
a(F37.8318936
F-122.2705782
tp576
a(F37.8099614
F-122.2780336
tp577
a(F37.7989504
F-122.2865327
tp578
a(F37.7760188
F-122.2270734
tp579
a(F37.8559816
F-122.2723624
tp580
a(F37.8561327
F-122.271289
tp581
a(F37.7938291
F-122.2750814
tp582
a(F37.7743204
F-122.2189902
tp583
a(F37.7976342
F-122.4237234
tp584
a(F37.8381246
F-122.2512989
tp585
a(F37.8422624
F-122.2558743
tp586
a(F37.7298969
F-122.4443081
tp587
a(F37.8515733
F-122.2660158
tp588
a(F37.8722066
F-122.2683879
tp589
a(F37.8257374
F-122.2635533
tp590
a(F37.8335251
F-122.2633031
tp591
a(F37.8256908
F-122.2637679
tp592
a(F37.8276294
F-122.2716509
tp593
a(F37.7723348
F-122.2259875
tp594
a(F37.8024264
F-122.2793973
tp595
a(F37.8166175
F-122.2677925
tp596
a(F37.815331
F-122.2961813
tp597
a(F37.8311072
F-122.2714108
tp598
a(F37.8522202
F-122.2730117
tp599
a(F37.7949853
F-122.2596683
tp600
a(F37.7945716
F-122.2594795
tp601
a(F37.8547949
F-122.2644254
tp602
a(F37.8302594
F-122.2603725
tp603
a(F37.8267544
F-122.2667881
tp604
a(F37.780291
F-122.2220368
tp605
a(F37.8095727
F-122.2782771
tp606
a(F37.6982329
F-122.470857
tp607
a(F37.7720062
F-122.2297989
tp608
a(F37.7366163
F-122.4446118
tp609
a(F37.8133487
F-122.2744523
tp610
a(F37.8138576
F-122.2742946
tp611
a(F37.8281947
F-122.2587953
tp612
a(F37.872385
F-122.2668734
tp613
a(F37.8265202
F-122.2602782
tp614
a(F37.8266368
F-122.2613399
tp615
a(F37.8153973
F-122.270309
tp616
a(F37.8710108
F-122.2651132
tp617
a(F37.810812
F-122.2845171
tp618
a(F37.8708748
F-122.27063
tp619
a(F37.8503966
F-122.2686314
tp620
a(F37.8515929
F-122.2688833
tp621
a(F37.8681591
F-122.2703593
tp622
a(F37.8678292
F-122.265886
tp623
a(F37.8017339
F-122.2799698
tp624
a(F37.8152646
F-122.2900753
tp625
a(F37.7400345
F-122.4413631
tp626
a(F37.8466672
F-122.2478177
tp627
a(F37.8335832
F-122.2674765
tp628
a(F37.7799837
F-122.2234596
tp629
a(F37.779241
F-122.2187337
tp630
a(F37.80138
F-122.278978
tp631
a(F37.75444
F-122.428811
tp632
a(F37.7984311
F-122.2587107
tp633
a(F37.8146466
F-122.2967231
tp634
a(F37.7916008
F-122.4288189
tp635
a(F37.791867
F-122.428669
tp636
a(F37.7917848
F-122.4286598
tp637
a(F37.6657658
F-122.4443238
tp638
a(F37.8033587
F-122.4164075
tp639
a(F37.7773741
F-122.2192293
tp640
a(F37.8036644
F-122.2608365
tp641
a(F37.8042675
F-122.2607306
tp642
a(F37.746262
F-122.407309
tp643
a(F37.745601
F-122.4088497
tp644
a(F37.8160629
F-122.2919971
tp645
a(F37.728641
F-122.425964
tp646
a(F37.7549364
F-122.4064873
tp647
a(F37.8087575
F-122.3061885
tp648
a(F37.8745843
F-122.2846775
tp649
a(F37.8483518
F-122.2713358
tp650
a(F37.779355
F-122.433596
tp651
a(F37.754576
F-122.4065606
tp652
a(F37.7542861
F-122.4064284
tp653
a(F37.803766
F-122.2609966
tp654
a(F37.826197
F-122.2686912
tp655
a(F37.80821
F-122.410548
tp656
a(F37.750094
F-122.4040932
tp657
a(F37.8055839
F-122.281004
tp658
a(F37.7478563
F-122.4062977
tp659
a(F37.7990445
F-122.2587328
tp660
a(F37.7991449
F-122.2587745
tp661
a(F37.7116617
F-122.4661983
tp662
a(F37.6812362
F-122.4634822
tp663
a(F37.6812993
F-122.4628385
tp664
a(F37.8267339
F-122.2622235
tp665
a(F37.7738154
F-122.2181718
tp666
a(F37.8266887
F-122.2718791
tp667
a(F37.8133706
F-122.2758981
tp668
a(F37.798716
F-122.2855195
tp669
a(F37.8092353
F-122.2794231
tp670
a(F37.7228125
F-122.4387914
tp671
a(F37.729509
F-122.423798
tp672
a(F37.752349
F-122.429157
tp673
a(F37.7980318
F-122.274132
tp674
a(F37.806616
F-122.2813936
tp675
a(F37.806667
F-122.28151
tp676
a(F37.809726
F-122.2804046
tp677
a(F37.8096418
F-122.2802938
tp678
a(F37.803695
F-122.413718
tp679
a(F37.7433654
F-122.4159585
tp680
a(F37.7431007
F-122.4158469
tp681
a(F37.7428699
F-122.4162417
tp682
a(F37.664745
F-122.4442477
tp683
a(F37.6648031
F-122.4441927
tp684
a(F37.6648634
F-122.444066
tp685
a(F37.8078299
F-122.4106813
tp686
a(F37.792217
F-122.429447
tp687
a(F37.7982382
F-122.2586146
tp688
a(F37.8161668
F-122.2673946
tp689
a(F37.787021
F-122.43346
tp690
a(F37.7634819
F-122.4014463
tp691
a(F37.7315145
F-122.4465976
tp692
a(F37.6897407
F-122.4652479
tp693
a(F37.783501
F-122.4310615
tp694
a(F37.6994701
F-122.4699625
tp695
a(F37.7845197
F-122.4329554
tp696
a(F37.6663169
F-122.4437999
tp697
a(F37.8019407
F-122.4202205
tp698
a(F37.7405977
F-122.4229743
tp699
a(F37.7372834
F-122.4424741
tp700
a(F37.866452
F-122.2675801
tp701
a(F37.8664283
F-122.2677146
tp702
a(F37.741233
F-122.419467
tp703
a(F37.7737198
F-122.2258278
tp704
a(F37.7799149
F-122.2234514
tp705
a(F37.7430222
F-122.4245289
tp706
a(F37.5997744
F-122.3866512
tp707
a(F37.6619373
F-122.4439352
tp708
a(F37.7547686
F-122.4288429
tp709
a(F37.7012883
F-122.4641332
tp710
a(F37.771907
F-122.4321052
tp711
a(F37.7438009
F-122.4139191
tp712
a(F37.749841
F-122.196572
tp713
a(F37.713641
F-122.444891
tp714
a(F37.7412021
F-122.4238043
tp715
a(F37.739887
F-122.4237112
tp716
a(F37.7397931
F-122.4237839
tp717
a(F37.7031682
F-122.4629962
tp718
a(F37.7418676
F-122.4289028
tp719
a(F37.7499588
F-122.4296563
tp720
a(F37.7507694
F-122.4294543
tp721
a(F37.7459682
F-122.4289856
tp722
a(F37.7591838
F-122.4088204
tp723
a(F37.8006532
F-122.2836868
tp724
a(F37.6890845
F-122.4666561
tp725
a(F37.8037842
F-122.4150563
tp726
a(F37.7848756
F-122.4308226
tp727
a(F37.757121
F-122.430084
tp728
a(F37.7210431
F-122.1599169
tp729
a(F37.7572001
F-122.4295385
tp730
a(F37.7572397
F-122.4295432
tp731
a(F37.808497
F-122.4119207
tp732
a(F37.8080542
F-122.4098408
tp733
a(F37.8146428
F-122.2634418
tp734
a(F37.7586234
F-122.4303393
tp735
a(F37.7586185
F-122.4303556
tp736
a(F37.7629724
F-122.4144564
tp737
a(F37.7848753
F-122.4310549
tp738
a(F37.8722969
F-122.2668562
tp739
a(F37.8723859
F-122.2661362
tp740
a(F37.8567217
F-122.2667945
tp741
a(F37.7723403
F-122.2182665
tp742
a(F37.7106929
F-122.4672928
tp743
a(F37.7112085
F-122.4668129
tp744
a(F37.7112395
F-122.4670323
tp745
a(F37.7621653
F-122.4360931
tp746
a(F37.7372616
F-122.4210854
tp747
a(F37.8485985
F-122.2508516
tp748
a(F37.7542799
F-122.4065264
tp749
a(F37.733812
F-122.4441058
tp750
a(F37.7345593
F-122.44416
tp751
a(F37.7491495
F-122.4047645
tp752
a(F37.8324378
F-122.2654109
tp753
a(F37.7997093
F-122.4224311
tp754
a(F37.852576
F-122.2646366
tp755
a(F37.7838148
F-122.4317701
tp756
a(F37.6632038
F-122.4452715
tp757
a(F37.8683205
F-122.2702303
tp758
a(F37.8688916
F-122.2718445
tp759
a(F37.8691029
F-122.2713645
tp760
a(F37.8693419
F-122.27118
tp761
a(F37.7915795
F-122.2706369
tp762
a(F37.7898214
F-122.2681185
tp763
a(F37.8129129
F-122.2744378
tp764
a(F37.8408292
F-122.2495308
tp765
a(F37.8571129
F-122.2677874
tp766
a(F37.8328153
F-122.2672443
tp767
a(F37.7903179
F-122.2697945
tp768
a(F37.7399444
F-122.4238984
tp769
a(F37.7401644
F-122.4234071
tp770
a(F37.7400217
F-122.4239664
tp771
a(F37.7490356
F-122.4315097
tp772
a(F37.7340626
F-122.4220378
tp773
a(F37.8046024
F-122.2803106
tp774
a(F37.7364351
F-122.4447196
tp775
a(F37.7535669
F-122.2005171
tp776
a(F37.6620378
F-122.4408149
tp777
a(F37.7926328
F-122.2710938
tp778
a(F37.8699684
F-122.2706566
tp779
a(F37.8489336
F-122.2699653
tp780
a(F37.763615
F-122.4005136
tp781
a(F37.8142983
F-122.2998235
tp782
a(F37.7421975
F-122.4171254
tp783
a(F37.8664425
F-122.2696117
tp784
a(F37.798076
F-122.2583821
tp785
a(F37.7604638
F-122.3906426
tp786
a(F37.7145434
F-122.4426955
tp787
a(F37.7145494
F-122.4425489
tp788
a(F37.7146604
F-122.4425727
tp789
a(F37.8138453
F-122.2902068
tp790
a(F37.8139029
F-122.2903728
tp791
a(F37.8139047
F-122.2903166
tp792
a(F37.8144812
F-122.2903492
tp793
a(F37.7451726
F-122.4289105
tp794
a(F37.781219
F-122.433973
tp795
a(F37.753997
F-122.429308
tp796
a(F37.7205065
F-122.4392564
tp797
a(F37.8564009
F-122.2692179
tp798
a(F37.8113702
F-122.2856315
tp799
a(F37.7173572
F-122.4417548
tp800
a(F37.8160354
F-122.2673919
tp801
a(F37.8163532
F-122.2686096
tp802
a(F37.8109293
F-122.4113001
tp803
a(F37.8088805
F-122.4114497
tp804
a(F37.8162812
F-122.268961
tp805
a(F37.8093877
F-122.4102421
tp806
a(F37.8081556
F-122.4109661
tp807
a(F37.8101188
F-122.4102299
tp808
a(F37.8078939
F-122.4108121
tp809
a(F37.8127853
F-122.2872211
tp810
a(F37.813005
F-122.2871466
tp811
a(F37.8081173
F-122.4102041
tp812
a(F37.7617629
F-122.3887785
tp813
a(F37.7537034
F-122.1950028
tp814
a(F37.7997649
F-122.2770327
tp815
a(F37.8251981
F-122.2647069
tp816
a(F37.7138365
F-122.4488875
tp817
a(F37.7925143
F-122.2573385
tp818
a(F37.7058115
F-122.4616732
tp819
a(F37.8744146
F-122.2847798
tp820
a(F37.7330764
F-122.4465276
tp821
a(F37.7989879
F-122.2585866
tp822
a(F37.7792784
F-122.2269206
tp823
a(F37.7788428
F-122.2283373
tp824
a(F37.790252
F-122.430737
tp825
a(F37.7592197
F-122.4079235
tp826
a(F37.8135536
F-122.300179
tp827
a(F37.8141044
F-122.2994362
tp828
a(F37.7067462
F-122.4619149
tp829
a(F37.7951118
F-122.2739502
tp830
a(F37.7358095
F-122.444338
tp831
a.