(lp0
L190477L
aL116987L
aL164126L
aL164131L
aL112932L
aL235570L
aL164145L
aL164149L
aL164155L
aL129366L
aL129368L
aL115134L
aL248276L
aL123447L
aL128436L
aL264782L
aL469712L
aL479979L
aL195370L
aL140765L
aL105310L
aL195439L
aL170879L
aL234414L
aL123893L
aL470006L
aL115718L
aL115727L
aL195926L
aL458135L
aL122274L
aL120243L
aL106066L
aL114219L
aL114335L
aL202424L
aL487185L
aL448821L
aL458565L
aL198503L
aL141179L
aL470923L
aL145299L
aL117069L
aL114653L
a.