(lp0
L195926L
aL194583L
aL481305L
aL352312L
aL190477L
aL127103L
aL487556L
aL114822L
aL449217L
aL107231L
aL479967L
aL108742L
aL203775L
aL436435L
aL115065L
aL207080L
aL215276L
aL198893L
aL124533L
aL452869L
aL487686L
aL487696L
aL164131L
aL112932L
aL164133L
aL164139L
aL235570L
aL164145L
aL164149L
aL164153L
aL164155L
aL452937L
aL129366L
aL129367L
aL129368L
aL123242L
aL127347L
aL128747L
aL203190L
aL115131L
aL115134L
aL125381L
aL248276L
aL479704L
aL123355L
aL453089L
aL311779L
aL455144L
aL127472L
aL123414L
aL123447L
aL302516L
aL123452L
aL264782L
aL440917L
aL318072L
aL111236L
aL232084L
aL211396L
aL119457L
aL481977L
aL469712L
aL107230L
aL107232L
aL129783L
aL193273L
aL437034L
aL230158L
aL195370L
aL111409L
aL129842L
aL293712L
aL197460L
aL492378L
aL105310L
aL293735L
aL211817L
aL195439L
aL122346L
aL170879L
aL121756L
aL113569L
aL113571L
aL234414L
aL116987L
aL185308L
aL123893L
aL470006L
aL208041L
aL244729L
aL115718L
aL115727L
aL115728L
aL491384L
aL115783L
aL390220L
aL257208L
aL479979L
aL208040L
aL134326L
aL203959L
aL105656L
aL124092L
aL191678L
aL111824L
aL120016L
aL141179L
aL447745L
aL114219L
aL109830L
aL263431L
aL115993L
aL148828L
aL192358L
aL458135L
aL122274L
aL120243L
aL128436L
aL124489L
aL110021L
aL140759L
aL140760L
aL140765L
aL181726L
aL163750L
aL106066L
aL226799L
aL216587L
aL120750L
aL456282L
aL464433L
aL218696L
aL106067L
aL181867L
aL124524L
aL480879L
aL480880L
aL129640L
aL441975L
aL122491L
aL206461L
aL480901L
aL325281L
aL164126L
aL202424L
aL205090L
aL164130L
aL118494L
aL121924L
aL128740L
aL106236L
aL210688L
aL196360L
aL458507L
aL269910L
aL487185L
aL122674L
aL448821L
aL458565L
aL116555L
aL198503L
aL106346L
aL470923L
aL145299L
aL479136L
aL114613L
aL114335L
aL117069L
aL169941L
aL114653L
aL208881L
a.