(lp0
(F37.758835
F-122.4158009
tp1
a(F37.7210897
F-122.4445151
tp2
a(F37.8048189
F-122.40476
tp3
a(F37.7668408
F-122.4115838
tp4
a(F37.7972667
F-122.2681998
tp5
a(F37.7971333
F-122.2681599
tp6
a(F37.7231736
F-122.4502281
tp7
a(F37.7053156
F-122.4699058
tp8
a(F37.8089576
F-122.2712354
tp9
a(F37.8102638
F-122.2927922
tp10
a(F37.7688328
F-122.3891832
tp11
a(F37.769618
F-122.3958361
tp12
a(F37.7678428
F-122.3897994
tp13
a(F37.7678729
F-122.389321
tp14
a(F37.7494348
F-122.4116135
tp15
a(F37.7738837
F-122.4240161
tp16
a(F37.7738992
F-122.4238976
tp17
a(F37.7550206
F-122.4242955
tp18
a(F37.7972516
F-122.4112856
tp19
a(F37.7852637
F-122.4244365
tp20
a(F37.7674929
F-122.4126244
tp21
a(F37.8082902
F-122.2982006
tp22
a(F37.8078885
F-122.2904719
tp23
a(F37.7054825
F-122.4698441
tp24
a(F37.7189148
F-122.4436993
tp25
a(F37.7659573
F-122.4130479
tp26
a(F37.8103753
F-122.292975
tp27
a(F37.7689251
F-122.3876082
tp28
a(F37.8085448
F-122.2898963
tp29
a(F37.7505376
F-122.4214466
tp30
a(F37.8025878
F-122.2898203
tp31
a(F37.8036368
F-122.2874653
tp32
a(F37.8037788
F-122.2874251
tp33
a(F37.7518792
F-122.4245285
tp34
a(F37.8000885
F-122.3943795
tp35
a(F37.8070302
F-122.2721992
tp36
a(F37.8061148
F-122.4045414
tp37
a(F37.8077004
F-122.2661079
tp38
a(F37.7961789
F-122.2679095
tp39
a(F37.7951918
F-122.2650869
tp40
a(F37.7952208
F-122.2654399
tp41
a(F37.730079
F-122.4381573
tp42
a(F37.7242894
F-122.4436379
tp43
a(F37.7683442
F-122.3856998
tp44
a(F37.7702733
F-122.3884567
tp45
a(F37.8027866
F-122.4060626
tp46
a(F37.802924
F-122.4059363
tp47
a(F37.7996859
F-122.4092392
tp48
a(F37.8037494
F-122.4056122
tp49
a(F37.7345314
F-122.4289597
tp50
a(F37.8078828
F-122.2718697
tp51
a(F37.7231454
F-122.4498005
tp52
a(F37.7236153
F-122.4497125
tp53
a(F37.7235202
F-122.4495437
tp54
a(F37.7234738
F-122.4493935
tp55
a(F37.7679446
F-122.389956
tp56
a(F37.7189752
F-122.4479312
tp57
a(F37.7229218
F-122.4507512
tp58
a(F37.7204823
F-122.4501293
tp59
a(F37.7343496
F-122.438435
tp60
a(F37.7499176
F-122.4220731
tp61
a(F37.7230775
F-122.4505654
tp62
a(F37.775525
F-122.42607
tp63
a(F37.7852725
F-122.4245276
tp64
a(F37.7785297
F-122.4250026
tp65
a(F37.751152
F-122.4099562
tp66
a(F37.751099
F-122.4108337
tp67
a(F37.7504566
F-122.4214386
tp68
a(F37.7503756
F-122.4227756
tp69
a(F37.7356325
F-122.4280813
tp70
a(F37.7656088
F-122.4104935
tp71
a(F37.7706611
F-122.4239051
tp72
a(F37.7646629
F-122.4260702
tp73
a(F37.7604978
F-122.4148505
tp74
a(F37.7656638
F-122.4277074
tp75
a(F37.7678819
F-122.4266363
tp76
a(F37.7639497
F-122.4264084
tp77
a(F37.7621616
F-122.4262355
tp78
a(F37.768652
F-122.4029274
tp79
a(F37.7188683
F-122.4478157
tp80
a(F37.7903247
F-122.422408
tp81
a(F37.765454
F-122.413139
tp82
a(F37.7638256
F-122.4136035
tp83
a(F37.7493687
F-122.4127085
tp84
a(F37.735856
F-122.4325541
tp85
a(F37.735698
F-122.4353663
tp86
a(F37.7222268
F-122.443793
tp87
a(F37.7585506
F-122.4205075
tp88
a(F37.7573042
F-122.4145476
tp89
a(F37.7572377
F-122.4156483
tp90
a(F37.7567702
F-122.4233776
tp91
a(F37.7869246
F-122.4266706
tp92
a(F37.7693828
F-122.3986471
tp93
a(F37.810648
F-122.2943655
tp94
a(F37.7685958
F-122.4038745
tp95
a(F37.7680266
F-122.4133836
tp96
a(F37.7372574
F-122.4347108
tp97
a(F37.7743395
F-122.4242105
tp98
a(F37.804763
F-122.405174
tp99
a(F37.7670512
F-122.4263821
tp100
a(F37.7970708
F-122.4169421
tp101
a(F37.7803952
F-122.4253545
tp102
a(F37.7657811
F-122.4075657
tp103
a(F37.7982187
F-122.415157
tp104
a(F37.7989359
F-122.4097485
tp105
a(F37.8007386
F-122.4068099
tp106
a(F37.800545
F-122.408375
tp107
a(F37.800251
F-122.4108378
tp108
a(F37.7998281
F-122.4141243
tp109
a(F37.7698267
F-122.4231603
tp110
a(F37.7965556
F-122.4172088
tp111
a(F37.7628968
F-122.4285271
tp112
a(F37.7482144
F-122.4136747
tp113
a(F37.7622297
F-122.4128321
tp114
a(F37.755971
F-122.423215
tp115
a(F37.7480778
F-122.4225503
tp116
a(F37.8057488
F-122.4044327
tp117
a(F37.771808
F-122.4253351
tp118
a(F37.7727283
F-122.4255185
tp119
a(F37.7769255
F-122.4263581
tp120
a(F37.8053909
F-122.4042541
tp121
a(F37.782986
F-122.427584
tp122
a(F37.7468291
F-122.4201703
tp123
a(F37.757701
F-122.421194
tp124
a(F37.7585043
F-122.4212725
tp125
a(F37.7292868
F-122.435196
tp126
a(F37.804052
F-122.2734444
tp127
a(F37.8041194
F-122.2736243
tp128
a(F37.7310141
F-122.4314161
tp129
a(F37.7992741
F-122.4146869
tp130
a(F37.7519118
F-122.4239945
tp131
a(F37.800753
F-122.414302
tp132
a(F37.80143
F-122.412754
tp133
a(F37.731615
F-122.432491
tp134
a(F37.7493366
F-122.4132328
tp135
a(F37.7543493
F-122.4102272
tp136
a(F37.787597
F-122.425141
tp137
a(F37.7638065
F-122.4272471
tp138
a(F37.7542945
F-122.411126
tp139
a(F37.7056763
F-122.4693047
tp140
a(F37.7690073
F-122.3895049
tp141
a(F37.7677019
F-122.4096597
tp142
a(F37.7205988
F-122.444818
tp143
a(F37.732368
F-122.4397539
tp144
a(F37.7814354
F-122.4258288
tp145
a(F37.7467824
F-122.4191289
tp146
a(F37.7733941
F-122.424007
tp147
a(F37.7854118
F-122.4249806
tp148
a(F37.7852762
F-122.4248347
tp149
a(F37.7687781
F-122.425633
tp150
a(F37.7672565
F-122.4047579
tp151
a(F37.6847729
F-122.4660016
tp152
a(F37.7188367
F-122.4459313
tp153
a(F37.7208128
F-122.4509487
tp154
a(F37.7058711
F-122.4696348
tp155
a(F37.767142
F-122.406677
tp156
a(F37.764741
F-122.414656
tp157
a(F37.7686766
F-122.403898
tp158
a(F37.788746
F-122.423688
tp159
a(F37.789203
F-122.423781
tp160
a(F37.7307352
F-122.4397479
tp161
a(F37.7775987
F-122.424834
tp162
a(F37.748711
F-122.423677
tp163
a(F37.8087962
F-122.2714982
tp164
a(F37.767028
F-122.408582
tp165
a(F37.7971391
F-122.2634725
tp166
a(F37.7977404
F-122.2634946
tp167
a(F37.7303161
F-122.4396712
tp168
a(F37.7930471
F-122.4186631
tp169
a(F37.8061169
F-122.2705733
tp170
a(F37.7972011
F-122.411115
tp171
a(F37.7985961
F-122.4155662
tp172
a(F37.7662016
F-122.4277067
tp173
a(F37.7327228
F-122.4333391
tp174
a(F37.7813334
F-122.4255063
tp175
a(F37.7627103
F-122.4248077
tp176
a(F37.800012
F-122.40911
tp177
a(F37.7551347
F-122.4237719
tp178
a(F37.7746803
F-122.224403
tp179
a(F37.759285
F-122.422805
tp180
a(F37.8011202
F-122.4114527
tp181
a(F37.7718729
F-122.3994901
tp182
a(F37.8008973
F-122.2733905
tp183
a(F37.7488046
F-122.4137487
tp184
a(F37.7343802
F-122.4382582
tp185
a(F37.8077695
F-122.2711629
tp186
a(F37.8025953
F-122.4064606
tp187
a(F37.8057097
F-122.2673498
tp188
a(F37.7351271
F-122.4285179
tp189
a(F37.8016976
F-122.4124569
tp190
a(F37.7305357
F-122.4360815
tp191
a(F37.7970888
F-122.4168912
tp192
a(F37.7483083
F-122.4137007
tp193
a(F37.8084996
F-122.2670807
tp194
a(F37.8100809
F-122.2925703
tp195
a(F37.7697392
F-122.4246367
tp196
a(F37.8065829
F-122.3008882
tp197
a(F37.8100359
F-122.2676679
tp198
a(F37.7326402
F-122.4301936
tp199
a(F37.7336945
F-122.4303493
tp200
a(F37.8098344
F-122.2712412
tp201
a(F37.8086088
F-122.2670891
tp202
a(F37.7587709
F-122.4168838
tp203
a(F37.8100012
F-122.295044
tp204
a(F37.7701561
F-122.3980604
tp205
a(F37.7718439
F-122.397181
tp206
a(F37.8040864
F-122.2735358
tp207
a(F37.8043586
F-122.2681927
tp208
a(F37.8090881
F-122.2710321
tp209
a(F37.733403
F-122.4294338
tp210
a(F37.7351739
F-122.4373354
tp211
a(F37.7339522
F-122.4303873
tp212
a(F37.7993308
F-122.4088063
tp213
a(F37.7996282
F-122.4093008
tp214
a(F37.7503695
F-122.4214302
tp215
a(F37.8021152
F-122.2887903
tp216
a(F37.7948768
F-122.2667536
tp217
a(F37.7677218
F-122.39175
tp218
a(F37.7676665
F-122.3926591
tp219
a(F37.7684533
F-122.3855985
tp220
a(F37.8026855
F-122.2875711
tp221
a(F37.7197032
F-122.447872
tp222
a(F37.7196067
F-122.4477953
tp223
a(F37.7195729
F-122.4478356
tp224
a(F37.7196956
F-122.4478113
tp225
a(F37.8111134
F-122.2928703
tp226
a(F37.7479469
F-122.4224187
tp227
a(F37.7066658
F-122.4688557
tp228
a(F37.8026965
F-122.4063823
tp229
a(F37.8038947
F-122.2744685
tp230
a(F37.8045842
F-122.2740375
tp231
a(F37.8059558
F-122.2731798
tp232
a(F37.8066126
F-122.2727692
tp233
a(F37.7678731
F-122.4267836
tp234
a(F37.8090522
F-122.2975948
tp235
a(F37.7978411
F-122.2634317
tp236
a(F37.7992317
F-122.2669733
tp237
a(F37.8071177
F-122.2893707
tp238
a(F37.8013864
F-122.4077465
tp239
a(F37.7739109
F-122.4238037
tp240
a(F37.8002254
F-122.2906784
tp241
a(F37.7953455
F-122.2679319
tp242
a(F37.7994621
F-122.265364
tp243
a(F37.7708667
F-122.4245889
tp244
a(F37.7957109
F-122.4183397
tp245
a(F37.7982378
F-122.4078816
tp246
a(F37.7688731
F-122.4134686
tp247
a(F37.8008624
F-122.2733014
tp248
a(F37.7985436
F-122.2674028
tp249
a(F37.8063249
F-122.2992975
tp250
a(F37.809811
F-122.2969884
tp251
a(F37.7318392
F-122.4308455
tp252
a(F37.7689979
F-122.4267436
tp253
a(F37.7717922
F-122.3985384
tp254
a(F37.759966
F-122.42369
tp255
a(F37.7598932
F-122.4248801
tp256
a(F37.753428
F-122.4253962
tp257
a(F37.8100194
F-122.2675705
tp258
a(F37.8022841
F-122.2875695
tp259
a(F37.798325
F-122.2690142
tp260
a(F37.805735
F-122.2747932
tp261
a(F37.8087825
F-122.2726618
tp262
a(F37.7475165
F-122.4213407
tp263
a(F37.804842
F-122.2878372
tp264
a(F37.7684695
F-122.3943658
tp265
a(F37.8075287
F-122.2997111
tp266
a(F37.8030228
F-122.405904
tp267
a(F37.8103285
F-122.2694011
tp268
a(F37.7957226
F-122.2642437
tp269
a(F37.7955279
F-122.2641573
tp270
a(F37.774599
F-122.425888
tp271
a(F37.8013174
F-122.27009
tp272
a(F37.8020066
F-122.26966
tp273
a(F37.802232
F-122.2680453
tp274
a(F37.809081
F-122.2919231
tp275
a(F37.7550711
F-122.4248226
tp276
a(F37.8091384
F-122.2710188
tp277
a(F37.8010873
F-122.2892517
tp278
a(F37.8026859
F-122.4061145
tp279
a(F37.7987905
F-122.4151267
tp280
a(F37.8061809
F-122.2996114
tp281
a(F37.8060643
F-122.2995832
tp282
a(F37.8063784
F-122.2654615
tp283
a(F37.7497756
F-122.4216301
tp284
a(F37.7490972
F-122.4225533
tp285
a(F37.7352037
F-122.4287115
tp286
a(F37.735448
F-122.4290548
tp287
a(F37.8071068
F-122.2720358
tp288
a(F37.8070293
F-122.2721272
tp289
a(F37.8080489
F-122.2911837
tp290
a(F37.7686736
F-122.4134546
tp291
a(F37.76591
F-122.4055956
tp292
a(F37.7971794
F-122.2635792
tp293
a(F37.7962601
F-122.263104
tp294
a(F37.7957733
F-122.263899
tp295
a(F37.7959543
F-122.2632937
tp296
a(F37.7967679
F-122.2632926
tp297
a(F37.7713131
F-122.424251
tp298
a(F37.7306589
F-122.4360182
tp299
a(F37.7859966
F-122.4264494
tp300
a(F37.7717378
F-122.3984691
tp301
a(F37.7316293
F-122.4397512
tp302
a(F37.7820737
F-122.4272651
tp303
a(F37.7818688
F-122.4271358
tp304
a(F37.7816456
F-122.4260606
tp305
a(F37.781822
F-122.4266013
tp306
a(F37.8029173
F-122.2676183
tp307
a(F37.8030221
F-122.2744325
tp308
a(F37.775997
F-122.426167
tp309
a(F37.7764652
F-122.4262662
tp310
a(F37.78807
F-122.425237
tp311
a(F37.7230605
F-122.443277
tp312
a(F37.7315398
F-122.4397509
tp313
a(F37.7519959
F-122.4239967
tp314
a(F37.801019
F-122.2717434
tp315
a(F37.7201484
F-122.4493019
tp316
a(F37.7355137
F-122.4329393
tp317
a(F37.7923937
F-122.4210567
tp318
a(F37.7227338
F-122.4518416
tp319
a(F37.7755591
F-122.4231687
tp320
a(F37.729028
F-122.436044
tp321
a(F37.7667697
F-122.4125602
tp322
a(F37.7639799
F-122.4262613
tp323
a(F37.7614313
F-122.4260164
tp324
a(F37.7550362
F-122.4254019
tp325
a(F37.802562
F-122.406436
tp326
a(F37.7503816
F-122.4226776
tp327
a(F37.7701141
F-122.3974237
tp328
a(F37.7700231
F-122.3970793
tp329
a(F37.8010017
F-122.407147
tp330
a(F37.8016943
F-122.4069987
tp331
a(F37.7667998
F-122.3908307
tp332
a(F37.7361001
F-122.430806
tp333
a(F37.7355589
F-122.4302478
tp334
a(F37.7518446
F-122.4250952
tp335
a(F37.7913069
F-122.422438
tp336
a(F37.7904235
F-122.4222716
tp337
a(F37.7629724
F-122.4144564
tp338
a(F37.7225656
F-122.451238
tp339
a(F37.794461
F-122.418927
tp340
a(F37.7637706
F-122.4151641
tp341
a(F37.7636937
F-122.4152926
tp342
a(F37.7636241
F-122.4151499
tp343
a(F37.7331526
F-122.4378768
tp344
a(F37.7653136
F-122.4265396
tp345
a(F37.765319
F-122.42639
tp346
a(F37.8010395
F-122.4081015
tp347
a(F37.7678475
F-122.3854358
tp348
a(F37.8291044
F-122.2671521
tp349
a(F37.8058572
F-122.4040098
tp350
a(F37.7368081
F-122.434481
tp351
a(F37.7990576
F-122.2641539
tp352
a(F37.8018298
F-122.2735905
tp353
a(F37.7528041
F-122.4091367
tp354
a(F37.7689632
F-122.4019854
tp355
a(F37.8021343
F-122.2888869
tp356
a(F37.7473501
F-122.4148568
tp357
a(F37.7975487
F-122.4170374
tp358
a(F37.7794591
F-122.4251829
tp359
a(F37.8091049
F-122.2920332
tp360
a(F37.809257
F-122.2922218
tp361
a(F37.8099286
F-122.292111
tp362
a(F37.7331895
F-122.4319375
tp363
a(F37.7720335
F-122.3975077
tp364
a(F37.7557799
F-122.4122147
tp365
a(F37.7557672
F-122.4133905
tp366
a(F37.7557051
F-122.4132989
tp367
a(F37.7934758
F-122.4195922
tp368
a(F37.8025947
F-122.2877781
tp369
a(F37.7697448
F-122.4245422
tp370
a(F37.7599724
F-122.4235989
tp371
a(F37.7567759
F-122.4232831
tp372
a(F37.7480915
F-122.4224523
tp373
a(F37.7195202
F-122.445506
tp374
a(F37.7954751
F-122.4183093
tp375
a.